;--------------------------------------------------------
; File Created by SDCC : free open source ANSI-C Compiler
; Version 3.5.0 #9253 (Aug 12 2015) (Linux)
; This file was generated Thu Apr 20 20:22:27 2017
;--------------------------------------------------------
	.module math3
	.optsdcc -mstm8
	
;--------------------------------------------------------
; Public variables in this module
;--------------------------------------------------------
	.globl _main
	.globl _lcd_putchar_d
	.globl _gotoxy
	.globl _clrscr
	.globl _lcd_init
	.globl _my_printf
	.globl _delay_ms
	.globl _sysclock_init
	.globl _cosf
	.globl _sinf
	.globl _putchar
;--------------------------------------------------------
; ram data
;--------------------------------------------------------
	.area DATA
;--------------------------------------------------------
; ram data
;--------------------------------------------------------
	.area INITIALIZED
;--------------------------------------------------------
; Stack segment in internal ram 
;--------------------------------------------------------
	.area	SSEG
__start__stack:
	.ds	1

;--------------------------------------------------------
; absolute external ram data
;--------------------------------------------------------
	.area DABS (ABS)
;--------------------------------------------------------
; interrupt vector 
;--------------------------------------------------------
	.area HOME
__interrupt_vect:
	int s_GSINIT ;reset
	int 0x0000 ;trap
	int 0x0000 ;int0
	int 0x0000 ;int1
	int 0x0000 ;int2
	int 0x0000 ;int3
	int 0x0000 ;int4
	int 0x0000 ;int5
	int 0x0000 ;int6
	int 0x0000 ;int7
	int 0x0000 ;int8
	int 0x0000 ;int9
	int 0x0000 ;int10
	int 0x0000 ;int11
	int 0x0000 ;int12
	int 0x0000 ;int13
	int 0x0000 ;int14
	int 0x0000 ;int15
	int 0x0000 ;int16
	int 0x0000 ;int17
	int 0x0000 ;int18
	int 0x0000 ;int19
	int 0x0000 ;int20
	int 0x0000 ;int21
	int 0x0000 ;int22
	int 0x0000 ;int23
	int 0x0000 ;int24
	int 0x0000 ;int25
	int 0x0000 ;int26
	int 0x0000 ;int27
	int 0x0000 ;int28
	int 0x0000 ;int29
;--------------------------------------------------------
; global & static initialisations
;--------------------------------------------------------
	.area HOME
	.area GSINIT
	.area GSFINAL
	.area GSINIT
__sdcc_gs_init_startup:
__sdcc_init_data:
; stm8_genXINIT() start
	ldw x, #l_DATA
	jreq	00002$
00001$:
	clr (s_DATA - 1, x)
	decw x
	jrne	00001$
00002$:
	ldw	x, #l_INITIALIZER
	jreq	00004$
00003$:
	ld	a, (s_INITIALIZER - 1, x)
	ld	(s_INITIALIZED - 1, x), a
	decw	x
	jrne	00003$
00004$:
; stm8_genXINIT() end
	.area GSFINAL
	jp	__sdcc_program_startup
;--------------------------------------------------------
; Home
;--------------------------------------------------------
	.area HOME
	.area HOME
__sdcc_program_startup:
	jp	_main
;	return from main will return to caller
;--------------------------------------------------------
; code
;--------------------------------------------------------
	.area CODE
;	math3.c: 44: void putchar(char ch)
;	-----------------------------------------
;	 function putchar
;	-----------------------------------------
_putchar:
;	math3.c: 46: lcd_putchar_d(ch);
	ld	a, (0x03, sp)
	push	a
	call	_lcd_putchar_d
	pop	a
	ret
;	math3.c: 50: int main(void)
;	-----------------------------------------
;	 function main
;	-----------------------------------------
_main:
	sub	sp, #12
;	math3.c: 58: sysclock_init(0);
	push	#0x00
	call	_sysclock_init
	pop	a
;	math3.c: 60: bled_output_init();
	ldw	x, #0x5007
	ld	a, (x)
	or	a, #0x20
	ld	(x), a
	ldw	x, #0x5008
	ld	a, (x)
	or	a, #0x20
	ld	(x), a
	ldw	x, #0x5009
	ld	a, (x)
	and	a, #0xdf
	ld	(x), a
;	math3.c: 61: exled_output_init();
	ldw	x, #0x5011
	ld	a, (x)
	or	a, #0x10
	ld	(x), a
	ldw	x, #0x5012
	ld	a, (x)
	or	a, #0x10
	ld	(x), a
	ldw	x, #0x5013
	ld	a, (x)
	and	a, #0xef
	ld	(x), a
;	math3.c: 62: button_input_init();
	ldw	x, #0x5011
	ld	a, (x)
	and	a, #0xf7
	ld	(x), a
	ldw	x, #0x5012
	ld	a, (x)
	or	a, #0x08
	ld	(x), a
;	math3.c: 64: printfkomma= 2;
	mov	_printfkomma+0, #0x02
;	math3.c: 66: lcd_init();
	call	_lcd_init
;	math3.c: 67: clrscr();
	call	_clrscr
;	math3.c: 68: gotoxy(0,0);
	push	#0x00
	push	#0x00
	call	_gotoxy
	popw	x
;	math3.c: 69: printf(" STM8S103F3P6\n\r");
	ldw	x, #___str_0+0
	pushw	x
	call	_my_printf
	popw	x
;	math3.c: 70: printf("    math.h\n\r");
	ldw	x, #___str_1+0
	pushw	x
	call	_my_printf
	popw	x
;	math3.c: 71: printf("--------------\n\r");
	ldw	x, #___str_2+0
	pushw	x
	call	_my_printf
	popw	x
;	math3.c: 77: gotoxy(0,3);
	push	#0x03
	push	#0x00
	call	_gotoxy
	popw	x
;	math3.c: 79: delay_ms(1000);
	push	#0xe8
	push	#0x03
	call	_delay_ms
	popw	x
;	math3.c: 81: cnt= 0;
	clrw	x
	ldw	(0x09, sp), x
;	math3.c: 82: while(1)
00105$:
;	math3.c: 85: bled_set();
	ldw	x, #0x5005
	ld	a, (x)
	or	a, #0x20
	ld	(x), a
;	math3.c: 86: delay_ms(countspeed);
	push	#0x5e
	push	#0x01
	call	_delay_ms
	popw	x
;	math3.c: 87: bled_clr();
	ldw	x, #0x5005
	ld	a, (x)
	and	a, #0xdf
	ld	(x), a
;	math3.c: 88: delay_ms(countspeed);
	push	#0x5e
	push	#0x01
	call	_delay_ms
	popw	x
;	math3.c: 90: if (cnt & 1) { exled_set(); } else { exled_clr(); }
	ldw	x, #0x500f
	ld	a, (x)
	push	a
	ld	a, (0x0b, sp)
	srl	a
	pop	a
	jrnc	00102$
	or	a, #0x10
	ldw	x, #0x500f
	ld	(x), a
	jra	00103$
00102$:
	and	a, #0xef
	ldw	x, #0x500f
	ld	(x), a
00103$:
;	math3.c: 92: cnt++;
	ldw	x, (0x09, sp)
	incw	x
;	math3.c: 93: cnt= cnt % 360;
	push	#0x68
	push	#0x01
	pushw	x
	call	__modsint
	addw	sp, #4
	ldw	(0x09, sp), x
;	math3.c: 94: r= sinf((float)cnt * (PI / 180.0f));
	ldw	x, (0x09, sp)
	pushw	x
	call	___sint2fs
	addw	sp, #2
	pushw	x
	pushw	y
	push	#0x35
	push	#0xfa
	push	#0x8e
	push	#0x3c
	call	___fsmul
	addw	sp, #8
	ldw	(0x07, sp), x
	ldw	(0x05, sp), y
	ldw	x, (0x07, sp)
	pushw	x
	ldw	x, (0x07, sp)
	pushw	x
	call	_sinf
	addw	sp, #4
;	math3.c: 95: i= (r * 100.0);
	pushw	x
	pushw	y
	clrw	x
	pushw	x
	push	#0xc8
	push	#0x42
	call	___fsmul
	addw	sp, #8
	pushw	x
	pushw	y
	call	___fs2sint
	addw	sp, #4
	ldw	(0x0b, sp), x
;	math3.c: 96: gotoxy(0,3); printf("              ");
	push	#0x03
	push	#0x00
	call	_gotoxy
	popw	x
	ldw	x, #___str_3+0
	ldw	(0x03, sp), x
	ldw	x, (0x03, sp)
	pushw	x
	call	_my_printf
	popw	x
;	math3.c: 97: gotoxy(0,3); printf("SIN(%d)=%k",cnt,i);
	push	#0x03
	push	#0x00
	call	_gotoxy
	popw	x
	ldw	y, #___str_4+0
	ldw	x, (0x0b, sp)
	pushw	x
	ldw	x, (0x0b, sp)
	pushw	x
	pushw	y
	call	_my_printf
	addw	sp, #6
;	math3.c: 98: r= cosf((float)cnt * (PI / 180.0f));
	ldw	x, (0x07, sp)
	pushw	x
	ldw	x, (0x07, sp)
	pushw	x
	call	_cosf
	addw	sp, #4
;	math3.c: 99: i= (r * 100.0);
	pushw	x
	pushw	y
	clrw	x
	pushw	x
	push	#0xc8
	push	#0x42
	call	___fsmul
	addw	sp, #8
	pushw	x
	pushw	y
	call	___fs2sint
	addw	sp, #4
	ldw	(0x01, sp), x
;	math3.c: 100: gotoxy(0,4); printf("              ");
	push	#0x04
	push	#0x00
	call	_gotoxy
	popw	x
	ldw	x, (0x03, sp)
	pushw	x
	call	_my_printf
	popw	x
;	math3.c: 101: gotoxy(0,4); printf("COS(%d)=%k",cnt,i);
	push	#0x04
	push	#0x00
	call	_gotoxy
	popw	x
	ldw	y, #___str_5+0
	ldw	x, (0x01, sp)
	pushw	x
	ldw	x, (0x0b, sp)
	pushw	x
	pushw	y
	call	_my_printf
	addw	sp, #6
	jp	00105$
	addw	sp, #12
	ret
	.area CODE
_fonttab:
	.db #0x00	; 0
	.db #0x00	; 0
	.db #0x00	; 0
	.db #0x00	; 0
	.db #0x00	; 0
	.db #0x00	; 0
	.db #0x00	; 0
	.db #0x2F	; 47
	.db #0x00	; 0
	.db #0x00	; 0
	.db #0x00	; 0
	.db #0x07	; 7
	.db #0x00	; 0
	.db #0x07	; 7
	.db #0x00	; 0
	.db #0x14	; 20
	.db #0x7F	; 127
	.db #0x14	; 20
	.db #0x7F	; 127
	.db #0x14	; 20
	.db #0x24	; 36
	.db #0x2A	; 42
	.db #0x7F	; 127
	.db #0x2A	; 42
	.db #0x12	; 18
	.db #0xC4	; 196
	.db #0xC8	; 200
	.db #0x10	; 16
	.db #0x26	; 38
	.db #0x46	; 70	'F'
	.db #0x36	; 54	'6'
	.db #0x49	; 73	'I'
	.db #0x55	; 85	'U'
	.db #0x22	; 34
	.db #0x50	; 80	'P'
	.db #0x00	; 0
	.db #0x05	; 5
	.db #0x03	; 3
	.db #0x00	; 0
	.db #0x00	; 0
	.db #0x00	; 0
	.db #0x1C	; 28
	.db #0x22	; 34
	.db #0x41	; 65	'A'
	.db #0x00	; 0
	.db #0x00	; 0
	.db #0x41	; 65	'A'
	.db #0x22	; 34
	.db #0x1C	; 28
	.db #0x00	; 0
	.db #0x14	; 20
	.db #0x08	; 8
	.db #0x3E	; 62
	.db #0x08	; 8
	.db #0x14	; 20
	.db #0x08	; 8
	.db #0x08	; 8
	.db #0x3E	; 62
	.db #0x08	; 8
	.db #0x08	; 8
	.db #0x00	; 0
	.db #0x00	; 0
	.db #0x50	; 80	'P'
	.db #0x30	; 48	'0'
	.db #0x00	; 0
	.db #0x10	; 16
	.db #0x10	; 16
	.db #0x10	; 16
	.db #0x10	; 16
	.db #0x10	; 16
	.db #0x00	; 0
	.db #0x60	; 96
	.db #0x60	; 96
	.db #0x00	; 0
	.db #0x00	; 0
	.db #0x20	; 32
	.db #0x10	; 16
	.db #0x08	; 8
	.db #0x04	; 4
	.db #0x02	; 2
	.db #0x3E	; 62
	.db #0x51	; 81	'Q'
	.db #0x49	; 73	'I'
	.db #0x45	; 69	'E'
	.db #0x3E	; 62
	.db #0x00	; 0
	.db #0x42	; 66	'B'
	.db #0x7F	; 127
	.db #0x40	; 64
	.db #0x00	; 0
	.db #0x42	; 66	'B'
	.db #0x61	; 97	'a'
	.db #0x51	; 81	'Q'
	.db #0x49	; 73	'I'
	.db #0x46	; 70	'F'
	.db #0x21	; 33
	.db #0x41	; 65	'A'
	.db #0x45	; 69	'E'
	.db #0x4B	; 75	'K'
	.db #0x31	; 49	'1'
	.db #0x18	; 24
	.db #0x14	; 20
	.db #0x12	; 18
	.db #0x7F	; 127
	.db #0x10	; 16
	.db #0x27	; 39
	.db #0x45	; 69	'E'
	.db #0x45	; 69	'E'
	.db #0x45	; 69	'E'
	.db #0x39	; 57	'9'
	.db #0x3C	; 60
	.db #0x4A	; 74	'J'
	.db #0x49	; 73	'I'
	.db #0x49	; 73	'I'
	.db #0x30	; 48	'0'
	.db #0x01	; 1
	.db #0x71	; 113	'q'
	.db #0x09	; 9
	.db #0x05	; 5
	.db #0x03	; 3
	.db #0x36	; 54	'6'
	.db #0x49	; 73	'I'
	.db #0x49	; 73	'I'
	.db #0x49	; 73	'I'
	.db #0x36	; 54	'6'
	.db #0x06	; 6
	.db #0x49	; 73	'I'
	.db #0x49	; 73	'I'
	.db #0x29	; 41
	.db #0x1E	; 30
	.db #0x00	; 0
	.db #0x36	; 54	'6'
	.db #0x36	; 54	'6'
	.db #0x00	; 0
	.db #0x00	; 0
	.db #0x00	; 0
	.db #0x56	; 86	'V'
	.db #0x36	; 54	'6'
	.db #0x00	; 0
	.db #0x00	; 0
	.db #0x08	; 8
	.db #0x14	; 20
	.db #0x22	; 34
	.db #0x41	; 65	'A'
	.db #0x00	; 0
	.db #0x14	; 20
	.db #0x14	; 20
	.db #0x14	; 20
	.db #0x14	; 20
	.db #0x14	; 20
	.db #0x00	; 0
	.db #0x41	; 65	'A'
	.db #0x22	; 34
	.db #0x14	; 20
	.db #0x08	; 8
	.db #0x02	; 2
	.db #0x01	; 1
	.db #0x51	; 81	'Q'
	.db #0x09	; 9
	.db #0x06	; 6
	.db #0x32	; 50	'2'
	.db #0x49	; 73	'I'
	.db #0x59	; 89	'Y'
	.db #0x51	; 81	'Q'
	.db #0x3E	; 62
	.db #0x7E	; 126
	.db #0x11	; 17
	.db #0x11	; 17
	.db #0x11	; 17
	.db #0x7E	; 126
	.db #0x7F	; 127
	.db #0x49	; 73	'I'
	.db #0x49	; 73	'I'
	.db #0x49	; 73	'I'
	.db #0x36	; 54	'6'
	.db #0x3E	; 62
	.db #0x41	; 65	'A'
	.db #0x41	; 65	'A'
	.db #0x41	; 65	'A'
	.db #0x22	; 34
	.db #0x7F	; 127
	.db #0x41	; 65	'A'
	.db #0x41	; 65	'A'
	.db #0x22	; 34
	.db #0x1C	; 28
	.db #0x7F	; 127
	.db #0x49	; 73	'I'
	.db #0x49	; 73	'I'
	.db #0x49	; 73	'I'
	.db #0x41	; 65	'A'
	.db #0x7F	; 127
	.db #0x09	; 9
	.db #0x09	; 9
	.db #0x09	; 9
	.db #0x01	; 1
	.db #0x3E	; 62
	.db #0x41	; 65	'A'
	.db #0x49	; 73	'I'
	.db #0x49	; 73	'I'
	.db #0x7A	; 122	'z'
	.db #0x7F	; 127
	.db #0x08	; 8
	.db #0x08	; 8
	.db #0x08	; 8
	.db #0x7F	; 127
	.db #0x00	; 0
	.db #0x41	; 65	'A'
	.db #0x7F	; 127
	.db #0x41	; 65	'A'
	.db #0x00	; 0
	.db #0x20	; 32
	.db #0x40	; 64
	.db #0x41	; 65	'A'
	.db #0x3F	; 63
	.db #0x01	; 1
	.db #0x7F	; 127
	.db #0x08	; 8
	.db #0x14	; 20
	.db #0x22	; 34
	.db #0x41	; 65	'A'
	.db #0x7F	; 127
	.db #0x40	; 64
	.db #0x40	; 64
	.db #0x40	; 64
	.db #0x40	; 64
	.db #0x7F	; 127
	.db #0x02	; 2
	.db #0x0C	; 12
	.db #0x02	; 2
	.db #0x7F	; 127
	.db #0x7F	; 127
	.db #0x04	; 4
	.db #0x08	; 8
	.db #0x10	; 16
	.db #0x7F	; 127
	.db #0x3E	; 62
	.db #0x41	; 65	'A'
	.db #0x41	; 65	'A'
	.db #0x41	; 65	'A'
	.db #0x3E	; 62
	.db #0x7F	; 127
	.db #0x09	; 9
	.db #0x09	; 9
	.db #0x09	; 9
	.db #0x06	; 6
	.db #0x3E	; 62
	.db #0x41	; 65	'A'
	.db #0x51	; 81	'Q'
	.db #0x21	; 33
	.db #0x5E	; 94
	.db #0x7F	; 127
	.db #0x09	; 9
	.db #0x19	; 25
	.db #0x29	; 41
	.db #0x46	; 70	'F'
	.db #0x46	; 70	'F'
	.db #0x49	; 73	'I'
	.db #0x49	; 73	'I'
	.db #0x49	; 73	'I'
	.db #0x31	; 49	'1'
	.db #0x01	; 1
	.db #0x01	; 1
	.db #0x7F	; 127
	.db #0x01	; 1
	.db #0x01	; 1
	.db #0x3F	; 63
	.db #0x40	; 64
	.db #0x40	; 64
	.db #0x40	; 64
	.db #0x3F	; 63
	.db #0x1F	; 31
	.db #0x20	; 32
	.db #0x40	; 64
	.db #0x20	; 32
	.db #0x1F	; 31
	.db #0x3F	; 63
	.db #0x40	; 64
	.db #0x38	; 56	'8'
	.db #0x40	; 64
	.db #0x3F	; 63
	.db #0x63	; 99	'c'
	.db #0x14	; 20
	.db #0x08	; 8
	.db #0x14	; 20
	.db #0x63	; 99	'c'
	.db #0x07	; 7
	.db #0x08	; 8
	.db #0x70	; 112	'p'
	.db #0x08	; 8
	.db #0x07	; 7
	.db #0x61	; 97	'a'
	.db #0x51	; 81	'Q'
	.db #0x49	; 73	'I'
	.db #0x45	; 69	'E'
	.db #0x43	; 67	'C'
	.db #0x00	; 0
	.db #0x7F	; 127
	.db #0x41	; 65	'A'
	.db #0x41	; 65	'A'
	.db #0x00	; 0
	.db #0x55	; 85	'U'
	.db #0x2A	; 42
	.db #0x55	; 85	'U'
	.db #0x2A	; 42
	.db #0x55	; 85	'U'
	.db #0x00	; 0
	.db #0x41	; 65	'A'
	.db #0x41	; 65	'A'
	.db #0x7F	; 127
	.db #0x00	; 0
	.db #0x04	; 4
	.db #0x02	; 2
	.db #0x01	; 1
	.db #0x02	; 2
	.db #0x04	; 4
	.db #0x40	; 64
	.db #0x40	; 64
	.db #0x40	; 64
	.db #0x40	; 64
	.db #0x40	; 64
	.db #0x00	; 0
	.db #0x01	; 1
	.db #0x02	; 2
	.db #0x04	; 4
	.db #0x00	; 0
	.db #0x20	; 32
	.db #0x54	; 84	'T'
	.db #0x54	; 84	'T'
	.db #0x54	; 84	'T'
	.db #0x78	; 120	'x'
	.db #0x7F	; 127
	.db #0x48	; 72	'H'
	.db #0x44	; 68	'D'
	.db #0x44	; 68	'D'
	.db #0x38	; 56	'8'
	.db #0x38	; 56	'8'
	.db #0x44	; 68	'D'
	.db #0x44	; 68	'D'
	.db #0x44	; 68	'D'
	.db #0x20	; 32
	.db #0x38	; 56	'8'
	.db #0x44	; 68	'D'
	.db #0x44	; 68	'D'
	.db #0x48	; 72	'H'
	.db #0x7F	; 127
	.db #0x38	; 56	'8'
	.db #0x54	; 84	'T'
	.db #0x54	; 84	'T'
	.db #0x54	; 84	'T'
	.db #0x18	; 24
	.db #0x08	; 8
	.db #0x7E	; 126
	.db #0x09	; 9
	.db #0x01	; 1
	.db #0x02	; 2
	.db #0x0C	; 12
	.db #0x52	; 82	'R'
	.db #0x52	; 82	'R'
	.db #0x52	; 82	'R'
	.db #0x3E	; 62
	.db #0x7F	; 127
	.db #0x08	; 8
	.db #0x04	; 4
	.db #0x04	; 4
	.db #0x78	; 120	'x'
	.db #0x00	; 0
	.db #0x44	; 68	'D'
	.db #0x7D	; 125
	.db #0x40	; 64
	.db #0x00	; 0
	.db #0x20	; 32
	.db #0x40	; 64
	.db #0x44	; 68	'D'
	.db #0x3D	; 61
	.db #0x00	; 0
	.db #0x7F	; 127
	.db #0x10	; 16
	.db #0x28	; 40
	.db #0x44	; 68	'D'
	.db #0x00	; 0
	.db #0x00	; 0
	.db #0x41	; 65	'A'
	.db #0x7F	; 127
	.db #0x40	; 64
	.db #0x00	; 0
	.db #0x7C	; 124
	.db #0x04	; 4
	.db #0x18	; 24
	.db #0x04	; 4
	.db #0x78	; 120	'x'
	.db #0x7C	; 124
	.db #0x08	; 8
	.db #0x04	; 4
	.db #0x04	; 4
	.db #0x78	; 120	'x'
	.db #0x38	; 56	'8'
	.db #0x44	; 68	'D'
	.db #0x44	; 68	'D'
	.db #0x44	; 68	'D'
	.db #0x38	; 56	'8'
	.db #0x7C	; 124
	.db #0x14	; 20
	.db #0x14	; 20
	.db #0x14	; 20
	.db #0x08	; 8
	.db #0x08	; 8
	.db #0x14	; 20
	.db #0x14	; 20
	.db #0x18	; 24
	.db #0x7C	; 124
	.db #0x7C	; 124
	.db #0x08	; 8
	.db #0x04	; 4
	.db #0x04	; 4
	.db #0x08	; 8
	.db #0x48	; 72	'H'
	.db #0x54	; 84	'T'
	.db #0x54	; 84	'T'
	.db #0x54	; 84	'T'
	.db #0x20	; 32
	.db #0x04	; 4
	.db #0x3F	; 63
	.db #0x44	; 68	'D'
	.db #0x40	; 64
	.db #0x20	; 32
	.db #0x3C	; 60
	.db #0x40	; 64
	.db #0x40	; 64
	.db #0x20	; 32
	.db #0x7C	; 124
	.db #0x1C	; 28
	.db #0x20	; 32
	.db #0x40	; 64
	.db #0x20	; 32
	.db #0x1C	; 28
	.db #0x3C	; 60
	.db #0x40	; 64
	.db #0x30	; 48	'0'
	.db #0x40	; 64
	.db #0x3C	; 60
	.db #0x44	; 68	'D'
	.db #0x28	; 40
	.db #0x10	; 16
	.db #0x28	; 40
	.db #0x44	; 68	'D'
	.db #0x0C	; 12
	.db #0x50	; 80	'P'
	.db #0x50	; 80	'P'
	.db #0x50	; 80	'P'
	.db #0x3C	; 60
	.db #0x44	; 68	'D'
	.db #0x64	; 100	'd'
	.db #0x54	; 84	'T'
	.db #0x4C	; 76	'L'
	.db #0x44	; 68	'D'
	.db #0x3E	; 62
	.db #0x7F	; 127
	.db #0x7F	; 127
	.db #0x3E	; 62
	.db #0x00	; 0
	.db #0x06	; 6
	.db #0x09	; 9
	.db #0x09	; 9
	.db #0x06	; 6
	.db #0x00	; 0
	.db #0x01	; 1
	.db #0x01	; 1
	.db #0x01	; 1
	.db #0x01	; 1
	.db #0x01	; 1
	.db #0x00	; 0
	.db #0x1D	; 29
	.db #0x15	; 21
	.db #0x17	; 23
	.db #0x00	; 0
___str_0:
	.ascii " STM8S103F3P6"
	.db 0x0A
	.db 0x0D
	.db 0x00
___str_1:
	.ascii "    math.h"
	.db 0x0A
	.db 0x0D
	.db 0x00
___str_2:
	.ascii "--------------"
	.db 0x0A
	.db 0x0D
	.db 0x00
___str_3:
	.ascii "              "
	.db 0x00
___str_4:
	.ascii "SIN(%d)=%k"
	.db 0x00
___str_5:
	.ascii "COS(%d)=%k"
	.db 0x00
	.area INITIALIZER
	.area CABS (ABS)
