;--------------------------------------------------------
; File Created by SDCC : free open source ANSI-C Compiler
; Version 3.5.0 #9253 (Aug 12 2015) (Linux)
; This file was generated Wed Apr  5 00:27:32 2017
;--------------------------------------------------------
	.module n5510_mandelmann
	.optsdcc -mstm8
	
;--------------------------------------------------------
; Public variables in this module
;--------------------------------------------------------
	.globl _main
	.globl _mandelbrot
	.globl _scr_update
	.globl _putpixel
	.globl _lcd_putchar
	.globl _gotoxy
	.globl _clrscr
	.globl _lcd_init
	.globl _my_printf
	.globl _sysclock_init
	.globl _putchar
;--------------------------------------------------------
; ram data
;--------------------------------------------------------
	.area DATA
;--------------------------------------------------------
; ram data
;--------------------------------------------------------
	.area INITIALIZED
;--------------------------------------------------------
; Stack segment in internal ram 
;--------------------------------------------------------
	.area	SSEG
__start__stack:
	.ds	1

;--------------------------------------------------------
; absolute external ram data
;--------------------------------------------------------
	.area DABS (ABS)
;--------------------------------------------------------
; interrupt vector 
;--------------------------------------------------------
	.area HOME
__interrupt_vect:
	int s_GSINIT ;reset
	int 0x0000 ;trap
	int 0x0000 ;int0
	int 0x0000 ;int1
	int 0x0000 ;int2
	int 0x0000 ;int3
	int 0x0000 ;int4
	int 0x0000 ;int5
	int 0x0000 ;int6
	int 0x0000 ;int7
	int 0x0000 ;int8
	int 0x0000 ;int9
	int 0x0000 ;int10
	int 0x0000 ;int11
	int 0x0000 ;int12
	int 0x0000 ;int13
	int 0x0000 ;int14
	int 0x0000 ;int15
	int 0x0000 ;int16
	int 0x0000 ;int17
	int 0x0000 ;int18
	int 0x0000 ;int19
	int 0x0000 ;int20
	int 0x0000 ;int21
	int 0x0000 ;int22
	int 0x0000 ;int23
	int 0x0000 ;int24
	int 0x0000 ;int25
	int 0x0000 ;int26
	int 0x0000 ;int27
	int 0x0000 ;int28
	int 0x0000 ;int29
;--------------------------------------------------------
; global & static initialisations
;--------------------------------------------------------
	.area HOME
	.area GSINIT
	.area GSFINAL
	.area GSINIT
__sdcc_gs_init_startup:
__sdcc_init_data:
; stm8_genXINIT() start
	ldw x, #l_DATA
	jreq	00002$
00001$:
	clr (s_DATA - 1, x)
	decw x
	jrne	00001$
00002$:
	ldw	x, #l_INITIALIZER
	jreq	00004$
00003$:
	ld	a, (s_INITIALIZER - 1, x)
	ld	(s_INITIALIZED - 1, x), a
	decw	x
	jrne	00003$
00004$:
; stm8_genXINIT() end
	.area GSFINAL
	jp	__sdcc_program_startup
;--------------------------------------------------------
; Home
;--------------------------------------------------------
	.area HOME
	.area HOME
__sdcc_program_startup:
	jp	_main
;	return from main will return to caller
;--------------------------------------------------------
; code
;--------------------------------------------------------
	.area CODE
;	n5510_mandelmann.c: 26: void putchar(char ch)
;	-----------------------------------------
;	 function putchar
;	-----------------------------------------
_putchar:
;	n5510_mandelmann.c: 30: lcd_putchar(ch);
	ld	a, (0x03, sp)
	push	a
	call	_lcd_putchar
	pop	a
	ret
;	n5510_mandelmann.c: 33: void mandelbrot(void)
;	-----------------------------------------
;	 function mandelbrot
;	-----------------------------------------
_mandelbrot:
	sub	sp, #58
;	n5510_mandelmann.c: 50: for (x= 0; x< graphwidth; x++)
	clrw	x
	ldw	(0x1f, sp), x
00112$:
;	n5510_mandelmann.c: 52: jx= xmin + ((float)x*dx);
	ldw	x, (0x1f, sp)
	pushw	x
	call	___uint2fs
	addw	sp, #2
	push	#0x3d
	push	#0xcf
	push	#0xf3
	push	#0xbc
	pushw	x
	pushw	y
	call	___fsmul
	addw	sp, #8
	pushw	x
	pushw	y
	clrw	x
	pushw	x
	push	#0xc0
	push	#0x3f
	call	___fsadd
	addw	sp, #8
	ldw	(0x1b, sp), x
	ldw	(0x19, sp), y
;	n5510_mandelmann.c: 54: for (y= 0; y< graphheight; y++)
	clrw	x
	ldw	(0x1d, sp), x
00110$:
;	n5510_mandelmann.c: 56: jy= ymin+((float)y*dy);
	ldw	x, (0x1d, sp)
	pushw	x
	call	___uint2fs
	addw	sp, #2
	push	#0xab
	push	#0xaa
	push	#0x2a
	push	#0x3d
	pushw	x
	pushw	y
	call	___fsmul
	addw	sp, #8
	pushw	x
	pushw	y
	clrw	x
	pushw	x
	push	#0x80
	push	#0xbf
	call	___fsadd
	addw	sp, #8
	ldw	(0x17, sp), x
	ldw	(0x15, sp), y
;	n5510_mandelmann.c: 58: k= 0; wx= 0.0; wy= 0.0;
	clrw	x
	ldw	(0x13, sp), x
	ldw	(0x11, sp), x
	clrw	x
	ldw	(0x0f, sp), x
	ldw	(0x0d, sp), x
;	n5510_mandelmann.c: 59: do
	clrw	x
	ldw	(0x21, sp), x
00103$:
;	n5510_mandelmann.c: 61: tx= wx*wx-(wy*wy+jx);
	ldw	x, (0x13, sp)
	pushw	x
	ldw	x, (0x13, sp)
	pushw	x
	ldw	x, (0x17, sp)
	pushw	x
	ldw	x, (0x17, sp)
	pushw	x
	call	___fsmul
	addw	sp, #8
	ldw	(0x25, sp), x
	ldw	(0x23, sp), y
	ldw	x, (0x0f, sp)
	pushw	x
	ldw	x, (0x0f, sp)
	pushw	x
	ldw	x, (0x13, sp)
	pushw	x
	ldw	x, (0x13, sp)
	pushw	x
	call	___fsmul
	addw	sp, #8
	ldw	(0x39, sp), x
	ldw	x, (0x1b, sp)
	pushw	x
	ldw	x, (0x1b, sp)
	pushw	x
	ldw	x, (0x3d, sp)
	pushw	x
	pushw	y
	call	___fsadd
	addw	sp, #8
	pushw	x
	pushw	y
	ldw	x, (0x29, sp)
	pushw	x
	ldw	x, (0x29, sp)
	pushw	x
	call	___fssub
	addw	sp, #8
	ldw	(0x0b, sp), x
	ldw	(0x09, sp), y
;	n5510_mandelmann.c: 62: ty= 2.0*wx*wy+jy;
	ldw	x, (0x13, sp)
	pushw	x
	ldw	x, (0x13, sp)
	pushw	x
	clrw	x
	pushw	x
	push	#0x00
	push	#0x40
	call	___fsmul
	addw	sp, #8
	ldw	(0x35, sp), x
	ldw	x, (0x0f, sp)
	pushw	x
	ldw	x, (0x0f, sp)
	pushw	x
	ldw	x, (0x39, sp)
	pushw	x
	pushw	y
	call	___fsmul
	addw	sp, #8
	ldw	(0x31, sp), x
	ldw	x, (0x17, sp)
	pushw	x
	ldw	x, (0x17, sp)
	pushw	x
	ldw	x, (0x35, sp)
	pushw	x
	pushw	y
	call	___fsadd
	addw	sp, #8
	ldw	(0x07, sp), x
	ldw	(0x05, sp), y
;	n5510_mandelmann.c: 63: wx= tx;
	ldw	y, (0x0b, sp)
	ldw	(0x13, sp), y
	ldw	y, (0x09, sp)
	ldw	(0x11, sp), y
;	n5510_mandelmann.c: 64: wy= ty;
	ldw	y, (0x07, sp)
	ldw	(0x0f, sp), y
	ldw	y, (0x05, sp)
	ldw	(0x0d, sp), y
;	n5510_mandelmann.c: 65: r= wx*wx+wy+wy;
	ldw	x, (0x13, sp)
	pushw	x
	ldw	x, (0x13, sp)
	pushw	x
	ldw	x, (0x17, sp)
	pushw	x
	ldw	x, (0x17, sp)
	pushw	x
	call	___fsmul
	addw	sp, #8
	ldw	(0x2d, sp), x
	ldw	x, (0x07, sp)
	pushw	x
	ldw	x, (0x07, sp)
	pushw	x
	ldw	x, (0x31, sp)
	pushw	x
	pushw	y
	call	___fsadd
	addw	sp, #8
	ldw	(0x29, sp), x
	ldw	x, (0x07, sp)
	pushw	x
	ldw	x, (0x07, sp)
	pushw	x
	ldw	x, (0x2d, sp)
	pushw	x
	pushw	y
	call	___fsadd
	addw	sp, #8
	ldw	(0x03, sp), x
;	n5510_mandelmann.c: 67: k++;
	ldw	x, (0x21, sp)
	incw	x
	ldw	(0x21, sp), x
;	n5510_mandelmann.c: 68: } while ((r < m) && (k < kt) && (k < 91));
	clrw	x
	pushw	x
	push	#0x80
	push	#0x40
	ldw	x, (0x07, sp)
	pushw	x
	pushw	y
	call	___fslt
	addw	sp, #8
	tnz	a
	jreq	00105$
	ldw	x, (0x21, sp)
	cpw	x, #0x0064
	jrnc	00105$
	ldw	x, (0x21, sp)
	cpw	x, #0x005b
	jrnc	00149$
	jp	00103$
00149$:
00105$:
;	n5510_mandelmann.c: 70: if (k> 90)
	ldw	x, (0x21, sp)
	cpw	x, #0x005a
	jrule	00111$
;	n5510_mandelmann.c: 72: putpixel(x,y, 1);
	ld	a, (0x1e, sp)
	rlwa	x
	ld	a, (0x20, sp)
	rrwa	x
	push	#0x01
	push	a
	ld	a, xh
	push	a
	call	_putpixel
	addw	sp, #3
00111$:
;	n5510_mandelmann.c: 54: for (y= 0; y< graphheight; y++)
	ldw	x, (0x1d, sp)
	incw	x
	ldw	(0x1d, sp), x
	ldw	x, (0x1d, sp)
	cpw	x, #0x0030
	jrnc	00151$
	jp	00110$
00151$:
;	n5510_mandelmann.c: 75: scr_update();
	call	_scr_update
;	n5510_mandelmann.c: 50: for (x= 0; x< graphwidth; x++)
	ldw	x, (0x1f, sp)
	incw	x
	ldw	(0x1f, sp), x
	ldw	x, (0x1f, sp)
	cpw	x, #0x0054
	jrnc	00152$
	jp	00112$
00152$:
	addw	sp, #58
	ret
;	n5510_mandelmann.c: 80: int main(void)
;	-----------------------------------------
;	 function main
;	-----------------------------------------
_main:
;	n5510_mandelmann.c: 83: sysclock_init(0);
	push	#0x00
	call	_sysclock_init
	pop	a
;	n5510_mandelmann.c: 85: lcd_init();
	call	_lcd_init
;	n5510_mandelmann.c: 86: directwrite= 0;
	clr	_directwrite+0
;	n5510_mandelmann.c: 88: clrscr();
	call	_clrscr
;	n5510_mandelmann.c: 89: gotoxy(0,0); printf("Mandelbrot");
	push	#0x00
	push	#0x00
	call	_gotoxy
	popw	x
	ldw	x, #___str_0+0
	pushw	x
	call	_my_printf
	popw	x
;	n5510_mandelmann.c: 90: scr_update();
	call	_scr_update
;	n5510_mandelmann.c: 91: mandelbrot();
	call	_mandelbrot
;	n5510_mandelmann.c: 93: while(1);
00102$:
	jra	00102$
	ret
	.area CODE
_fonttab:
	.db #0x00	; 0
	.db #0x00	; 0
	.db #0x00	; 0
	.db #0x00	; 0
	.db #0x00	; 0
	.db #0x00	; 0
	.db #0x00	; 0
	.db #0x2F	; 47
	.db #0x00	; 0
	.db #0x00	; 0
	.db #0x00	; 0
	.db #0x07	; 7
	.db #0x00	; 0
	.db #0x07	; 7
	.db #0x00	; 0
	.db #0x14	; 20
	.db #0x7F	; 127
	.db #0x14	; 20
	.db #0x7F	; 127
	.db #0x14	; 20
	.db #0x24	; 36
	.db #0x2A	; 42
	.db #0x7F	; 127
	.db #0x2A	; 42
	.db #0x12	; 18
	.db #0xC4	; 196
	.db #0xC8	; 200
	.db #0x10	; 16
	.db #0x26	; 38
	.db #0x46	; 70	'F'
	.db #0x36	; 54	'6'
	.db #0x49	; 73	'I'
	.db #0x55	; 85	'U'
	.db #0x22	; 34
	.db #0x50	; 80	'P'
	.db #0x00	; 0
	.db #0x05	; 5
	.db #0x03	; 3
	.db #0x00	; 0
	.db #0x00	; 0
	.db #0x00	; 0
	.db #0x1C	; 28
	.db #0x22	; 34
	.db #0x41	; 65	'A'
	.db #0x00	; 0
	.db #0x00	; 0
	.db #0x41	; 65	'A'
	.db #0x22	; 34
	.db #0x1C	; 28
	.db #0x00	; 0
	.db #0x14	; 20
	.db #0x08	; 8
	.db #0x3E	; 62
	.db #0x08	; 8
	.db #0x14	; 20
	.db #0x08	; 8
	.db #0x08	; 8
	.db #0x3E	; 62
	.db #0x08	; 8
	.db #0x08	; 8
	.db #0x00	; 0
	.db #0x00	; 0
	.db #0x50	; 80	'P'
	.db #0x30	; 48	'0'
	.db #0x00	; 0
	.db #0x10	; 16
	.db #0x10	; 16
	.db #0x10	; 16
	.db #0x10	; 16
	.db #0x10	; 16
	.db #0x00	; 0
	.db #0x60	; 96
	.db #0x60	; 96
	.db #0x00	; 0
	.db #0x00	; 0
	.db #0x20	; 32
	.db #0x10	; 16
	.db #0x08	; 8
	.db #0x04	; 4
	.db #0x02	; 2
	.db #0x3E	; 62
	.db #0x51	; 81	'Q'
	.db #0x49	; 73	'I'
	.db #0x45	; 69	'E'
	.db #0x3E	; 62
	.db #0x00	; 0
	.db #0x42	; 66	'B'
	.db #0x7F	; 127
	.db #0x40	; 64
	.db #0x00	; 0
	.db #0x42	; 66	'B'
	.db #0x61	; 97	'a'
	.db #0x51	; 81	'Q'
	.db #0x49	; 73	'I'
	.db #0x46	; 70	'F'
	.db #0x21	; 33
	.db #0x41	; 65	'A'
	.db #0x45	; 69	'E'
	.db #0x4B	; 75	'K'
	.db #0x31	; 49	'1'
	.db #0x18	; 24
	.db #0x14	; 20
	.db #0x12	; 18
	.db #0x7F	; 127
	.db #0x10	; 16
	.db #0x27	; 39
	.db #0x45	; 69	'E'
	.db #0x45	; 69	'E'
	.db #0x45	; 69	'E'
	.db #0x39	; 57	'9'
	.db #0x3C	; 60
	.db #0x4A	; 74	'J'
	.db #0x49	; 73	'I'
	.db #0x49	; 73	'I'
	.db #0x30	; 48	'0'
	.db #0x01	; 1
	.db #0x71	; 113	'q'
	.db #0x09	; 9
	.db #0x05	; 5
	.db #0x03	; 3
	.db #0x36	; 54	'6'
	.db #0x49	; 73	'I'
	.db #0x49	; 73	'I'
	.db #0x49	; 73	'I'
	.db #0x36	; 54	'6'
	.db #0x06	; 6
	.db #0x49	; 73	'I'
	.db #0x49	; 73	'I'
	.db #0x29	; 41
	.db #0x1E	; 30
	.db #0x00	; 0
	.db #0x36	; 54	'6'
	.db #0x36	; 54	'6'
	.db #0x00	; 0
	.db #0x00	; 0
	.db #0x00	; 0
	.db #0x56	; 86	'V'
	.db #0x36	; 54	'6'
	.db #0x00	; 0
	.db #0x00	; 0
	.db #0x08	; 8
	.db #0x14	; 20
	.db #0x22	; 34
	.db #0x41	; 65	'A'
	.db #0x00	; 0
	.db #0x14	; 20
	.db #0x14	; 20
	.db #0x14	; 20
	.db #0x14	; 20
	.db #0x14	; 20
	.db #0x00	; 0
	.db #0x41	; 65	'A'
	.db #0x22	; 34
	.db #0x14	; 20
	.db #0x08	; 8
	.db #0x02	; 2
	.db #0x01	; 1
	.db #0x51	; 81	'Q'
	.db #0x09	; 9
	.db #0x06	; 6
	.db #0x32	; 50	'2'
	.db #0x49	; 73	'I'
	.db #0x59	; 89	'Y'
	.db #0x51	; 81	'Q'
	.db #0x3E	; 62
	.db #0x7E	; 126
	.db #0x11	; 17
	.db #0x11	; 17
	.db #0x11	; 17
	.db #0x7E	; 126
	.db #0x7F	; 127
	.db #0x49	; 73	'I'
	.db #0x49	; 73	'I'
	.db #0x49	; 73	'I'
	.db #0x36	; 54	'6'
	.db #0x3E	; 62
	.db #0x41	; 65	'A'
	.db #0x41	; 65	'A'
	.db #0x41	; 65	'A'
	.db #0x22	; 34
	.db #0x7F	; 127
	.db #0x41	; 65	'A'
	.db #0x41	; 65	'A'
	.db #0x22	; 34
	.db #0x1C	; 28
	.db #0x7F	; 127
	.db #0x49	; 73	'I'
	.db #0x49	; 73	'I'
	.db #0x49	; 73	'I'
	.db #0x41	; 65	'A'
	.db #0x7F	; 127
	.db #0x09	; 9
	.db #0x09	; 9
	.db #0x09	; 9
	.db #0x01	; 1
	.db #0x3E	; 62
	.db #0x41	; 65	'A'
	.db #0x49	; 73	'I'
	.db #0x49	; 73	'I'
	.db #0x7A	; 122	'z'
	.db #0x7F	; 127
	.db #0x08	; 8
	.db #0x08	; 8
	.db #0x08	; 8
	.db #0x7F	; 127
	.db #0x00	; 0
	.db #0x41	; 65	'A'
	.db #0x7F	; 127
	.db #0x41	; 65	'A'
	.db #0x00	; 0
	.db #0x20	; 32
	.db #0x40	; 64
	.db #0x41	; 65	'A'
	.db #0x3F	; 63
	.db #0x01	; 1
	.db #0x7F	; 127
	.db #0x08	; 8
	.db #0x14	; 20
	.db #0x22	; 34
	.db #0x41	; 65	'A'
	.db #0x7F	; 127
	.db #0x40	; 64
	.db #0x40	; 64
	.db #0x40	; 64
	.db #0x40	; 64
	.db #0x7F	; 127
	.db #0x02	; 2
	.db #0x0C	; 12
	.db #0x02	; 2
	.db #0x7F	; 127
	.db #0x7F	; 127
	.db #0x04	; 4
	.db #0x08	; 8
	.db #0x10	; 16
	.db #0x7F	; 127
	.db #0x3E	; 62
	.db #0x41	; 65	'A'
	.db #0x41	; 65	'A'
	.db #0x41	; 65	'A'
	.db #0x3E	; 62
	.db #0x7F	; 127
	.db #0x09	; 9
	.db #0x09	; 9
	.db #0x09	; 9
	.db #0x06	; 6
	.db #0x3E	; 62
	.db #0x41	; 65	'A'
	.db #0x51	; 81	'Q'
	.db #0x21	; 33
	.db #0x5E	; 94
	.db #0x7F	; 127
	.db #0x09	; 9
	.db #0x19	; 25
	.db #0x29	; 41
	.db #0x46	; 70	'F'
	.db #0x46	; 70	'F'
	.db #0x49	; 73	'I'
	.db #0x49	; 73	'I'
	.db #0x49	; 73	'I'
	.db #0x31	; 49	'1'
	.db #0x01	; 1
	.db #0x01	; 1
	.db #0x7F	; 127
	.db #0x01	; 1
	.db #0x01	; 1
	.db #0x3F	; 63
	.db #0x40	; 64
	.db #0x40	; 64
	.db #0x40	; 64
	.db #0x3F	; 63
	.db #0x1F	; 31
	.db #0x20	; 32
	.db #0x40	; 64
	.db #0x20	; 32
	.db #0x1F	; 31
	.db #0x3F	; 63
	.db #0x40	; 64
	.db #0x38	; 56	'8'
	.db #0x40	; 64
	.db #0x3F	; 63
	.db #0x63	; 99	'c'
	.db #0x14	; 20
	.db #0x08	; 8
	.db #0x14	; 20
	.db #0x63	; 99	'c'
	.db #0x07	; 7
	.db #0x08	; 8
	.db #0x70	; 112	'p'
	.db #0x08	; 8
	.db #0x07	; 7
	.db #0x61	; 97	'a'
	.db #0x51	; 81	'Q'
	.db #0x49	; 73	'I'
	.db #0x45	; 69	'E'
	.db #0x43	; 67	'C'
	.db #0x00	; 0
	.db #0x7F	; 127
	.db #0x41	; 65	'A'
	.db #0x41	; 65	'A'
	.db #0x00	; 0
	.db #0x55	; 85	'U'
	.db #0x2A	; 42
	.db #0x55	; 85	'U'
	.db #0x2A	; 42
	.db #0x55	; 85	'U'
	.db #0x00	; 0
	.db #0x41	; 65	'A'
	.db #0x41	; 65	'A'
	.db #0x7F	; 127
	.db #0x00	; 0
	.db #0x04	; 4
	.db #0x02	; 2
	.db #0x01	; 1
	.db #0x02	; 2
	.db #0x04	; 4
	.db #0x40	; 64
	.db #0x40	; 64
	.db #0x40	; 64
	.db #0x40	; 64
	.db #0x40	; 64
	.db #0x00	; 0
	.db #0x01	; 1
	.db #0x02	; 2
	.db #0x04	; 4
	.db #0x00	; 0
	.db #0x20	; 32
	.db #0x54	; 84	'T'
	.db #0x54	; 84	'T'
	.db #0x54	; 84	'T'
	.db #0x78	; 120	'x'
	.db #0x7F	; 127
	.db #0x48	; 72	'H'
	.db #0x44	; 68	'D'
	.db #0x44	; 68	'D'
	.db #0x38	; 56	'8'
	.db #0x38	; 56	'8'
	.db #0x44	; 68	'D'
	.db #0x44	; 68	'D'
	.db #0x44	; 68	'D'
	.db #0x20	; 32
	.db #0x38	; 56	'8'
	.db #0x44	; 68	'D'
	.db #0x44	; 68	'D'
	.db #0x48	; 72	'H'
	.db #0x7F	; 127
	.db #0x38	; 56	'8'
	.db #0x54	; 84	'T'
	.db #0x54	; 84	'T'
	.db #0x54	; 84	'T'
	.db #0x18	; 24
	.db #0x08	; 8
	.db #0x7E	; 126
	.db #0x09	; 9
	.db #0x01	; 1
	.db #0x02	; 2
	.db #0x0C	; 12
	.db #0x52	; 82	'R'
	.db #0x52	; 82	'R'
	.db #0x52	; 82	'R'
	.db #0x3E	; 62
	.db #0x7F	; 127
	.db #0x08	; 8
	.db #0x04	; 4
	.db #0x04	; 4
	.db #0x78	; 120	'x'
	.db #0x00	; 0
	.db #0x44	; 68	'D'
	.db #0x7D	; 125
	.db #0x40	; 64
	.db #0x00	; 0
	.db #0x20	; 32
	.db #0x40	; 64
	.db #0x44	; 68	'D'
	.db #0x3D	; 61
	.db #0x00	; 0
	.db #0x7F	; 127
	.db #0x10	; 16
	.db #0x28	; 40
	.db #0x44	; 68	'D'
	.db #0x00	; 0
	.db #0x00	; 0
	.db #0x41	; 65	'A'
	.db #0x7F	; 127
	.db #0x40	; 64
	.db #0x00	; 0
	.db #0x7C	; 124
	.db #0x04	; 4
	.db #0x18	; 24
	.db #0x04	; 4
	.db #0x78	; 120	'x'
	.db #0x7C	; 124
	.db #0x08	; 8
	.db #0x04	; 4
	.db #0x04	; 4
	.db #0x78	; 120	'x'
	.db #0x38	; 56	'8'
	.db #0x44	; 68	'D'
	.db #0x44	; 68	'D'
	.db #0x44	; 68	'D'
	.db #0x38	; 56	'8'
	.db #0x7C	; 124
	.db #0x14	; 20
	.db #0x14	; 20
	.db #0x14	; 20
	.db #0x08	; 8
	.db #0x08	; 8
	.db #0x14	; 20
	.db #0x14	; 20
	.db #0x18	; 24
	.db #0x7C	; 124
	.db #0x7C	; 124
	.db #0x08	; 8
	.db #0x04	; 4
	.db #0x04	; 4
	.db #0x08	; 8
	.db #0x48	; 72	'H'
	.db #0x54	; 84	'T'
	.db #0x54	; 84	'T'
	.db #0x54	; 84	'T'
	.db #0x20	; 32
	.db #0x04	; 4
	.db #0x3F	; 63
	.db #0x44	; 68	'D'
	.db #0x40	; 64
	.db #0x20	; 32
	.db #0x3C	; 60
	.db #0x40	; 64
	.db #0x40	; 64
	.db #0x20	; 32
	.db #0x7C	; 124
	.db #0x1C	; 28
	.db #0x20	; 32
	.db #0x40	; 64
	.db #0x20	; 32
	.db #0x1C	; 28
	.db #0x3C	; 60
	.db #0x40	; 64
	.db #0x30	; 48	'0'
	.db #0x40	; 64
	.db #0x3C	; 60
	.db #0x44	; 68	'D'
	.db #0x28	; 40
	.db #0x10	; 16
	.db #0x28	; 40
	.db #0x44	; 68	'D'
	.db #0x0C	; 12
	.db #0x50	; 80	'P'
	.db #0x50	; 80	'P'
	.db #0x50	; 80	'P'
	.db #0x3C	; 60
	.db #0x44	; 68	'D'
	.db #0x64	; 100	'd'
	.db #0x54	; 84	'T'
	.db #0x4C	; 76	'L'
	.db #0x44	; 68	'D'
	.db #0x3E	; 62
	.db #0x7F	; 127
	.db #0x7F	; 127
	.db #0x3E	; 62
	.db #0x00	; 0
	.db #0x06	; 6
	.db #0x09	; 9
	.db #0x09	; 9
	.db #0x06	; 6
	.db #0x00	; 0
	.db #0x01	; 1
	.db #0x01	; 1
	.db #0x01	; 1
	.db #0x01	; 1
	.db #0x01	; 1
	.db #0x10	; 16
	.db #0x30	; 48	'0'
	.db #0x7F	; 127
	.db #0x30	; 48	'0'
	.db #0x10	; 16
___str_0:
	.ascii "Mandelbrot"
	.db 0x00
	.area INITIALIZER
	.area CABS (ABS)
