;--------------------------------------------------------
; File Created by SDCC : free open source ANSI-C Compiler
; Version 3.5.0 #9253 (Aug 12 2015) (Linux)
; This file was generated Tue May  9 20:28:52 2017
;--------------------------------------------------------
	.module n5510_glcd_demo
	.optsdcc -mstm8
	
;--------------------------------------------------------
; Public variables in this module
;--------------------------------------------------------
	.globl _main
	.globl _scr_update
	.globl _showimage
	.globl _circle
	.globl _rectangle
	.globl _line
	.globl _lcd_putstring
	.globl _lcd_putchar
	.globl _gotoxy
	.globl _clrscr
	.globl _lcd_init
	.globl _my_printf
	.globl _delay_ms
	.globl _sysclock_init
	.globl _putchar
;--------------------------------------------------------
; ram data
;--------------------------------------------------------
	.area DATA
;--------------------------------------------------------
; ram data
;--------------------------------------------------------
	.area INITIALIZED
;--------------------------------------------------------
; Stack segment in internal ram 
;--------------------------------------------------------
	.area	SSEG
__start__stack:
	.ds	1

;--------------------------------------------------------
; absolute external ram data
;--------------------------------------------------------
	.area DABS (ABS)
;--------------------------------------------------------
; interrupt vector 
;--------------------------------------------------------
	.area HOME
__interrupt_vect:
	int s_GSINIT ;reset
	int 0x0000 ;trap
	int 0x0000 ;int0
	int 0x0000 ;int1
	int 0x0000 ;int2
	int 0x0000 ;int3
	int 0x0000 ;int4
	int 0x0000 ;int5
	int 0x0000 ;int6
	int 0x0000 ;int7
	int 0x0000 ;int8
	int 0x0000 ;int9
	int 0x0000 ;int10
	int 0x0000 ;int11
	int 0x0000 ;int12
	int 0x0000 ;int13
	int 0x0000 ;int14
	int 0x0000 ;int15
	int 0x0000 ;int16
	int 0x0000 ;int17
	int 0x0000 ;int18
	int 0x0000 ;int19
	int 0x0000 ;int20
	int 0x0000 ;int21
	int 0x0000 ;int22
	int 0x0000 ;int23
	int 0x0000 ;int24
	int 0x0000 ;int25
	int 0x0000 ;int26
	int 0x0000 ;int27
	int 0x0000 ;int28
	int 0x0000 ;int29
;--------------------------------------------------------
; global & static initialisations
;--------------------------------------------------------
	.area HOME
	.area GSINIT
	.area GSFINAL
	.area GSINIT
__sdcc_gs_init_startup:
__sdcc_init_data:
; stm8_genXINIT() start
	ldw x, #l_DATA
	jreq	00002$
00001$:
	clr (s_DATA - 1, x)
	decw x
	jrne	00001$
00002$:
	ldw	x, #l_INITIALIZER
	jreq	00004$
00003$:
	ld	a, (s_INITIALIZER - 1, x)
	ld	(s_INITIALIZED - 1, x), a
	decw	x
	jrne	00003$
00004$:
; stm8_genXINIT() end
	.area GSFINAL
	jp	__sdcc_program_startup
;--------------------------------------------------------
; Home
;--------------------------------------------------------
	.area HOME
	.area HOME
__sdcc_program_startup:
	jp	_main
;	return from main will return to caller
;--------------------------------------------------------
; code
;--------------------------------------------------------
	.area CODE
;	n5510_glcd_demo.c: 47: void putchar(char ch)
;	-----------------------------------------
;	 function putchar
;	-----------------------------------------
_putchar:
;	n5510_glcd_demo.c: 51: lcd_putchar(ch);
	ld	a, (0x03, sp)
	push	a
	call	_lcd_putchar
	pop	a
	ret
;	n5510_glcd_demo.c: 54: int main(void)
;	-----------------------------------------
;	 function main
;	-----------------------------------------
_main:
;	n5510_glcd_demo.c: 58: sysclock_init(0);
	push	#0x00
	call	_sysclock_init
	pop	a
;	n5510_glcd_demo.c: 60: bled_output_init();
	ldw	x, #0x5007
	ld	a, (x)
	or	a, #0x20
	ld	(x), a
	ldw	x, #0x5008
	ld	a, (x)
	or	a, #0x20
	ld	(x), a
	ldw	x, #0x5009
	ld	a, (x)
	and	a, #0xdf
	ld	(x), a
;	n5510_glcd_demo.c: 61: exled_output_init();
	ldw	x, #0x5011
	ld	a, (x)
	or	a, #0x10
	ld	(x), a
	ldw	x, #0x5012
	ld	a, (x)
	or	a, #0x10
	ld	(x), a
	ldw	x, #0x5013
	ld	a, (x)
	and	a, #0xef
	ld	(x), a
;	n5510_glcd_demo.c: 62: button_input_init();
	ldw	x, #0x5011
	ld	a, (x)
	and	a, #0xdf
	ld	(x), a
	ldw	x, #0x5012
	ld	a, (x)
	or	a, #0x20
	ld	(x), a
;	n5510_glcd_demo.c: 63: lcd_init();
	call	_lcd_init
;	n5510_glcd_demo.c: 64: directwrite= 0;
	clr	_directwrite+0
;	n5510_glcd_demo.c: 66: printfkomma= 2;
	mov	_printfkomma+0, #0x02
;	n5510_glcd_demo.c: 68: while(1)
00102$:
;	n5510_glcd_demo.c: 70: bled_set();
	ldw	x, #0x5005
	ld	a, (x)
	or	a, #0x20
	ld	(x), a
;	n5510_glcd_demo.c: 71: exled_clr();
	ldw	x, #0x500f
	ld	a, (x)
	and	a, #0xef
	ld	(x), a
;	n5510_glcd_demo.c: 72: clrscr();
	call	_clrscr
;	n5510_glcd_demo.c: 73: rectangle(0,0,82,47,1);
	push	#0x01
	push	#0x2f
	push	#0x52
	push	#0x00
	push	#0x00
	call	_rectangle
	addw	sp, #5
;	n5510_glcd_demo.c: 74: rectangle(3,3,79,44,1);
	push	#0x01
	push	#0x2c
	push	#0x4f
	push	#0x03
	push	#0x03
	call	_rectangle
	addw	sp, #5
;	n5510_glcd_demo.c: 75: gotoxy(1,1); lcd_putstring("STM8S103F3");
	push	#0x01
	push	#0x01
	call	_gotoxy
	popw	x
	ldw	x, #___str_0+0
	pushw	x
	call	_lcd_putstring
	popw	x
;	n5510_glcd_demo.c: 76: gotoxy(1,2); printf("Grafikmode");
	push	#0x02
	push	#0x01
	call	_gotoxy
	popw	x
	ldw	x, #___str_1+0
	pushw	x
	call	_my_printf
	popw	x
;	n5510_glcd_demo.c: 77: circle(40,34,9,1);
	push	#0x01
	push	#0x09
	push	#0x00
	push	#0x22
	push	#0x00
	push	#0x28
	push	#0x00
	call	_circle
	addw	sp, #7
;	n5510_glcd_demo.c: 78: line(3,24,80,44,1);
	push	#0x01
	push	#0x2c
	push	#0x00
	push	#0x50
	push	#0x00
	push	#0x18
	push	#0x00
	push	#0x03
	push	#0x00
	call	_line
	addw	sp, #9
;	n5510_glcd_demo.c: 79: scr_update();
	call	_scr_update
;	n5510_glcd_demo.c: 80: delay_ms(2000);
	push	#0xd0
	push	#0x07
	call	_delay_ms
	popw	x
;	n5510_glcd_demo.c: 82: bled_clr();
	ldw	x, #0x5005
	ld	a, (x)
	and	a, #0xdf
	ld	(x), a
;	n5510_glcd_demo.c: 83: exled_set();
	ldw	x, #0x500f
	ld	a, (x)
	or	a, #0x10
	ld	(x), a
;	n5510_glcd_demo.c: 84: clrscr();
	call	_clrscr
;	n5510_glcd_demo.c: 85: showimage(0,0,&bmppic[0],1);
	ldw	x, #_bmppic+0
	push	#0x01
	pushw	x
	push	#0x00
	push	#0x00
	call	_showimage
	addw	sp, #5
;	n5510_glcd_demo.c: 86: scr_update();
	call	_scr_update
;	n5510_glcd_demo.c: 87: delay_ms(2000);
	push	#0xd0
	push	#0x07
	call	_delay_ms
	popw	x
;	n5510_glcd_demo.c: 91: clrscr();
	call	_clrscr
;	n5510_glcd_demo.c: 92: showimage(0,0,&girla[0],1);
	ldw	x, #_girla+0
	push	#0x01
	pushw	x
	push	#0x00
	push	#0x00
	call	_showimage
	addw	sp, #5
;	n5510_glcd_demo.c: 93: scr_update();
	call	_scr_update
;	n5510_glcd_demo.c: 94: delay_ms(2000);
	push	#0xd0
	push	#0x07
	call	_delay_ms
	popw	x
;	n5510_glcd_demo.c: 96: clrscr();
	call	_clrscr
;	n5510_glcd_demo.c: 97: showimage(0,0,&girlb[0],1);
	ldw	x, #_girlb+0
	push	#0x01
	pushw	x
	push	#0x00
	push	#0x00
	call	_showimage
	addw	sp, #5
;	n5510_glcd_demo.c: 98: scr_update();
	call	_scr_update
;	n5510_glcd_demo.c: 99: delay_ms(2000);
	push	#0xd0
	push	#0x07
	call	_delay_ms
	popw	x
;	n5510_glcd_demo.c: 101: clrscr();
	call	_clrscr
;	n5510_glcd_demo.c: 102: showimage(0,0,&girlc[0],1);
	ldw	x, #_girlc+0
	push	#0x01
	pushw	x
	push	#0x00
	push	#0x00
	call	_showimage
	addw	sp, #5
;	n5510_glcd_demo.c: 103: scr_update();
	call	_scr_update
;	n5510_glcd_demo.c: 104: delay_ms(2000);
	push	#0xd0
	push	#0x07
	call	_delay_ms
	popw	x
;	n5510_glcd_demo.c: 106: clrscr();
	call	_clrscr
;	n5510_glcd_demo.c: 107: showimage(0,0,&venus[0],1);
	ldw	x, #_venus+0
	push	#0x01
	pushw	x
	push	#0x00
	push	#0x00
	call	_showimage
	addw	sp, #5
;	n5510_glcd_demo.c: 108: scr_update();
	call	_scr_update
;	n5510_glcd_demo.c: 109: delay_ms(2000);
	push	#0xd0
	push	#0x07
	call	_delay_ms
	popw	x
	jp	00102$
	ret
	.area CODE
_fonttab:
	.db #0x00	; 0
	.db #0x00	; 0
	.db #0x00	; 0
	.db #0x00	; 0
	.db #0x00	; 0
	.db #0x00	; 0
	.db #0x00	; 0
	.db #0x2F	; 47
	.db #0x00	; 0
	.db #0x00	; 0
	.db #0x00	; 0
	.db #0x07	; 7
	.db #0x00	; 0
	.db #0x07	; 7
	.db #0x00	; 0
	.db #0x14	; 20
	.db #0x7F	; 127
	.db #0x14	; 20
	.db #0x7F	; 127
	.db #0x14	; 20
	.db #0x24	; 36
	.db #0x2A	; 42
	.db #0x7F	; 127
	.db #0x2A	; 42
	.db #0x12	; 18
	.db #0xC4	; 196
	.db #0xC8	; 200
	.db #0x10	; 16
	.db #0x26	; 38
	.db #0x46	; 70	'F'
	.db #0x36	; 54	'6'
	.db #0x49	; 73	'I'
	.db #0x55	; 85	'U'
	.db #0x22	; 34
	.db #0x50	; 80	'P'
	.db #0x00	; 0
	.db #0x05	; 5
	.db #0x03	; 3
	.db #0x00	; 0
	.db #0x00	; 0
	.db #0x00	; 0
	.db #0x1C	; 28
	.db #0x22	; 34
	.db #0x41	; 65	'A'
	.db #0x00	; 0
	.db #0x00	; 0
	.db #0x41	; 65	'A'
	.db #0x22	; 34
	.db #0x1C	; 28
	.db #0x00	; 0
	.db #0x14	; 20
	.db #0x08	; 8
	.db #0x3E	; 62
	.db #0x08	; 8
	.db #0x14	; 20
	.db #0x08	; 8
	.db #0x08	; 8
	.db #0x3E	; 62
	.db #0x08	; 8
	.db #0x08	; 8
	.db #0x00	; 0
	.db #0x00	; 0
	.db #0x50	; 80	'P'
	.db #0x30	; 48	'0'
	.db #0x00	; 0
	.db #0x10	; 16
	.db #0x10	; 16
	.db #0x10	; 16
	.db #0x10	; 16
	.db #0x10	; 16
	.db #0x00	; 0
	.db #0x60	; 96
	.db #0x60	; 96
	.db #0x00	; 0
	.db #0x00	; 0
	.db #0x20	; 32
	.db #0x10	; 16
	.db #0x08	; 8
	.db #0x04	; 4
	.db #0x02	; 2
	.db #0x3E	; 62
	.db #0x51	; 81	'Q'
	.db #0x49	; 73	'I'
	.db #0x45	; 69	'E'
	.db #0x3E	; 62
	.db #0x00	; 0
	.db #0x42	; 66	'B'
	.db #0x7F	; 127
	.db #0x40	; 64
	.db #0x00	; 0
	.db #0x42	; 66	'B'
	.db #0x61	; 97	'a'
	.db #0x51	; 81	'Q'
	.db #0x49	; 73	'I'
	.db #0x46	; 70	'F'
	.db #0x21	; 33
	.db #0x41	; 65	'A'
	.db #0x45	; 69	'E'
	.db #0x4B	; 75	'K'
	.db #0x31	; 49	'1'
	.db #0x18	; 24
	.db #0x14	; 20
	.db #0x12	; 18
	.db #0x7F	; 127
	.db #0x10	; 16
	.db #0x27	; 39
	.db #0x45	; 69	'E'
	.db #0x45	; 69	'E'
	.db #0x45	; 69	'E'
	.db #0x39	; 57	'9'
	.db #0x3C	; 60
	.db #0x4A	; 74	'J'
	.db #0x49	; 73	'I'
	.db #0x49	; 73	'I'
	.db #0x30	; 48	'0'
	.db #0x01	; 1
	.db #0x71	; 113	'q'
	.db #0x09	; 9
	.db #0x05	; 5
	.db #0x03	; 3
	.db #0x36	; 54	'6'
	.db #0x49	; 73	'I'
	.db #0x49	; 73	'I'
	.db #0x49	; 73	'I'
	.db #0x36	; 54	'6'
	.db #0x06	; 6
	.db #0x49	; 73	'I'
	.db #0x49	; 73	'I'
	.db #0x29	; 41
	.db #0x1E	; 30
	.db #0x00	; 0
	.db #0x36	; 54	'6'
	.db #0x36	; 54	'6'
	.db #0x00	; 0
	.db #0x00	; 0
	.db #0x00	; 0
	.db #0x56	; 86	'V'
	.db #0x36	; 54	'6'
	.db #0x00	; 0
	.db #0x00	; 0
	.db #0x08	; 8
	.db #0x14	; 20
	.db #0x22	; 34
	.db #0x41	; 65	'A'
	.db #0x00	; 0
	.db #0x14	; 20
	.db #0x14	; 20
	.db #0x14	; 20
	.db #0x14	; 20
	.db #0x14	; 20
	.db #0x00	; 0
	.db #0x41	; 65	'A'
	.db #0x22	; 34
	.db #0x14	; 20
	.db #0x08	; 8
	.db #0x02	; 2
	.db #0x01	; 1
	.db #0x51	; 81	'Q'
	.db #0x09	; 9
	.db #0x06	; 6
	.db #0x32	; 50	'2'
	.db #0x49	; 73	'I'
	.db #0x59	; 89	'Y'
	.db #0x51	; 81	'Q'
	.db #0x3E	; 62
	.db #0x7E	; 126
	.db #0x11	; 17
	.db #0x11	; 17
	.db #0x11	; 17
	.db #0x7E	; 126
	.db #0x7F	; 127
	.db #0x49	; 73	'I'
	.db #0x49	; 73	'I'
	.db #0x49	; 73	'I'
	.db #0x36	; 54	'6'
	.db #0x3E	; 62
	.db #0x41	; 65	'A'
	.db #0x41	; 65	'A'
	.db #0x41	; 65	'A'
	.db #0x22	; 34
	.db #0x7F	; 127
	.db #0x41	; 65	'A'
	.db #0x41	; 65	'A'
	.db #0x22	; 34
	.db #0x1C	; 28
	.db #0x7F	; 127
	.db #0x49	; 73	'I'
	.db #0x49	; 73	'I'
	.db #0x49	; 73	'I'
	.db #0x41	; 65	'A'
	.db #0x7F	; 127
	.db #0x09	; 9
	.db #0x09	; 9
	.db #0x09	; 9
	.db #0x01	; 1
	.db #0x3E	; 62
	.db #0x41	; 65	'A'
	.db #0x49	; 73	'I'
	.db #0x49	; 73	'I'
	.db #0x7A	; 122	'z'
	.db #0x7F	; 127
	.db #0x08	; 8
	.db #0x08	; 8
	.db #0x08	; 8
	.db #0x7F	; 127
	.db #0x00	; 0
	.db #0x41	; 65	'A'
	.db #0x7F	; 127
	.db #0x41	; 65	'A'
	.db #0x00	; 0
	.db #0x20	; 32
	.db #0x40	; 64
	.db #0x41	; 65	'A'
	.db #0x3F	; 63
	.db #0x01	; 1
	.db #0x7F	; 127
	.db #0x08	; 8
	.db #0x14	; 20
	.db #0x22	; 34
	.db #0x41	; 65	'A'
	.db #0x7F	; 127
	.db #0x40	; 64
	.db #0x40	; 64
	.db #0x40	; 64
	.db #0x40	; 64
	.db #0x7F	; 127
	.db #0x02	; 2
	.db #0x0C	; 12
	.db #0x02	; 2
	.db #0x7F	; 127
	.db #0x7F	; 127
	.db #0x04	; 4
	.db #0x08	; 8
	.db #0x10	; 16
	.db #0x7F	; 127
	.db #0x3E	; 62
	.db #0x41	; 65	'A'
	.db #0x41	; 65	'A'
	.db #0x41	; 65	'A'
	.db #0x3E	; 62
	.db #0x7F	; 127
	.db #0x09	; 9
	.db #0x09	; 9
	.db #0x09	; 9
	.db #0x06	; 6
	.db #0x3E	; 62
	.db #0x41	; 65	'A'
	.db #0x51	; 81	'Q'
	.db #0x21	; 33
	.db #0x5E	; 94
	.db #0x7F	; 127
	.db #0x09	; 9
	.db #0x19	; 25
	.db #0x29	; 41
	.db #0x46	; 70	'F'
	.db #0x46	; 70	'F'
	.db #0x49	; 73	'I'
	.db #0x49	; 73	'I'
	.db #0x49	; 73	'I'
	.db #0x31	; 49	'1'
	.db #0x01	; 1
	.db #0x01	; 1
	.db #0x7F	; 127
	.db #0x01	; 1
	.db #0x01	; 1
	.db #0x3F	; 63
	.db #0x40	; 64
	.db #0x40	; 64
	.db #0x40	; 64
	.db #0x3F	; 63
	.db #0x1F	; 31
	.db #0x20	; 32
	.db #0x40	; 64
	.db #0x20	; 32
	.db #0x1F	; 31
	.db #0x3F	; 63
	.db #0x40	; 64
	.db #0x38	; 56	'8'
	.db #0x40	; 64
	.db #0x3F	; 63
	.db #0x63	; 99	'c'
	.db #0x14	; 20
	.db #0x08	; 8
	.db #0x14	; 20
	.db #0x63	; 99	'c'
	.db #0x07	; 7
	.db #0x08	; 8
	.db #0x70	; 112	'p'
	.db #0x08	; 8
	.db #0x07	; 7
	.db #0x61	; 97	'a'
	.db #0x51	; 81	'Q'
	.db #0x49	; 73	'I'
	.db #0x45	; 69	'E'
	.db #0x43	; 67	'C'
	.db #0x00	; 0
	.db #0x7F	; 127
	.db #0x41	; 65	'A'
	.db #0x41	; 65	'A'
	.db #0x00	; 0
	.db #0x55	; 85	'U'
	.db #0x2A	; 42
	.db #0x55	; 85	'U'
	.db #0x2A	; 42
	.db #0x55	; 85	'U'
	.db #0x00	; 0
	.db #0x41	; 65	'A'
	.db #0x41	; 65	'A'
	.db #0x7F	; 127
	.db #0x00	; 0
	.db #0x04	; 4
	.db #0x02	; 2
	.db #0x01	; 1
	.db #0x02	; 2
	.db #0x04	; 4
	.db #0x40	; 64
	.db #0x40	; 64
	.db #0x40	; 64
	.db #0x40	; 64
	.db #0x40	; 64
	.db #0x00	; 0
	.db #0x01	; 1
	.db #0x02	; 2
	.db #0x04	; 4
	.db #0x00	; 0
	.db #0x20	; 32
	.db #0x54	; 84	'T'
	.db #0x54	; 84	'T'
	.db #0x54	; 84	'T'
	.db #0x78	; 120	'x'
	.db #0x7F	; 127
	.db #0x48	; 72	'H'
	.db #0x44	; 68	'D'
	.db #0x44	; 68	'D'
	.db #0x38	; 56	'8'
	.db #0x38	; 56	'8'
	.db #0x44	; 68	'D'
	.db #0x44	; 68	'D'
	.db #0x44	; 68	'D'
	.db #0x20	; 32
	.db #0x38	; 56	'8'
	.db #0x44	; 68	'D'
	.db #0x44	; 68	'D'
	.db #0x48	; 72	'H'
	.db #0x7F	; 127
	.db #0x38	; 56	'8'
	.db #0x54	; 84	'T'
	.db #0x54	; 84	'T'
	.db #0x54	; 84	'T'
	.db #0x18	; 24
	.db #0x08	; 8
	.db #0x7E	; 126
	.db #0x09	; 9
	.db #0x01	; 1
	.db #0x02	; 2
	.db #0x0C	; 12
	.db #0x52	; 82	'R'
	.db #0x52	; 82	'R'
	.db #0x52	; 82	'R'
	.db #0x3E	; 62
	.db #0x7F	; 127
	.db #0x08	; 8
	.db #0x04	; 4
	.db #0x04	; 4
	.db #0x78	; 120	'x'
	.db #0x00	; 0
	.db #0x44	; 68	'D'
	.db #0x7D	; 125
	.db #0x40	; 64
	.db #0x00	; 0
	.db #0x20	; 32
	.db #0x40	; 64
	.db #0x44	; 68	'D'
	.db #0x3D	; 61
	.db #0x00	; 0
	.db #0x7F	; 127
	.db #0x10	; 16
	.db #0x28	; 40
	.db #0x44	; 68	'D'
	.db #0x00	; 0
	.db #0x00	; 0
	.db #0x41	; 65	'A'
	.db #0x7F	; 127
	.db #0x40	; 64
	.db #0x00	; 0
	.db #0x7C	; 124
	.db #0x04	; 4
	.db #0x18	; 24
	.db #0x04	; 4
	.db #0x78	; 120	'x'
	.db #0x7C	; 124
	.db #0x08	; 8
	.db #0x04	; 4
	.db #0x04	; 4
	.db #0x78	; 120	'x'
	.db #0x38	; 56	'8'
	.db #0x44	; 68	'D'
	.db #0x44	; 68	'D'
	.db #0x44	; 68	'D'
	.db #0x38	; 56	'8'
	.db #0x7C	; 124
	.db #0x14	; 20
	.db #0x14	; 20
	.db #0x14	; 20
	.db #0x08	; 8
	.db #0x08	; 8
	.db #0x14	; 20
	.db #0x14	; 20
	.db #0x18	; 24
	.db #0x7C	; 124
	.db #0x7C	; 124
	.db #0x08	; 8
	.db #0x04	; 4
	.db #0x04	; 4
	.db #0x08	; 8
	.db #0x48	; 72	'H'
	.db #0x54	; 84	'T'
	.db #0x54	; 84	'T'
	.db #0x54	; 84	'T'
	.db #0x20	; 32
	.db #0x04	; 4
	.db #0x3F	; 63
	.db #0x44	; 68	'D'
	.db #0x40	; 64
	.db #0x20	; 32
	.db #0x3C	; 60
	.db #0x40	; 64
	.db #0x40	; 64
	.db #0x20	; 32
	.db #0x7C	; 124
	.db #0x1C	; 28
	.db #0x20	; 32
	.db #0x40	; 64
	.db #0x20	; 32
	.db #0x1C	; 28
	.db #0x3C	; 60
	.db #0x40	; 64
	.db #0x30	; 48	'0'
	.db #0x40	; 64
	.db #0x3C	; 60
	.db #0x44	; 68	'D'
	.db #0x28	; 40
	.db #0x10	; 16
	.db #0x28	; 40
	.db #0x44	; 68	'D'
	.db #0x0C	; 12
	.db #0x50	; 80	'P'
	.db #0x50	; 80	'P'
	.db #0x50	; 80	'P'
	.db #0x3C	; 60
	.db #0x44	; 68	'D'
	.db #0x64	; 100	'd'
	.db #0x54	; 84	'T'
	.db #0x4C	; 76	'L'
	.db #0x44	; 68	'D'
	.db #0x3E	; 62
	.db #0x7F	; 127
	.db #0x7F	; 127
	.db #0x3E	; 62
	.db #0x00	; 0
	.db #0x06	; 6
	.db #0x09	; 9
	.db #0x09	; 9
	.db #0x06	; 6
	.db #0x00	; 0
	.db #0x01	; 1
	.db #0x01	; 1
	.db #0x01	; 1
	.db #0x01	; 1
	.db #0x01	; 1
	.db #0x10	; 16
	.db #0x30	; 48	'0'
	.db #0x7F	; 127
	.db #0x30	; 48	'0'
	.db #0x10	; 16
_bmppic:
	.db #0x54	; 84	'T'
	.db #0x30	; 48	'0'
	.db #0x00	; 0
	.db #0x00	; 0
	.db #0x00	; 0
	.db #0x00	; 0
	.db #0x1F	; 31
	.db #0xE0	; 224
	.db #0x00	; 0
	.db #0x00	; 0
	.db #0x00	; 0
	.db #0x00	; 0
	.db #0x00	; 0
	.db #0x00	; 0
	.db #0x00	; 0
	.db #0x00	; 0
	.db #0x00	; 0
	.db #0x3F	; 63
	.db #0xFF	; 255
	.db #0x00	; 0
	.db #0x00	; 0
	.db #0x00	; 0
	.db #0x00	; 0
	.db #0x00	; 0
	.db #0x00	; 0
	.db #0x00	; 0
	.db #0x00	; 0
	.db #0x00	; 0
	.db #0xFF	; 255
	.db #0xFF	; 255
	.db #0xE0	; 224
	.db #0x00	; 0
	.db #0x00	; 0
	.db #0x00	; 0
	.db #0x00	; 0
	.db #0x00	; 0
	.db #0x00	; 0
	.db #0x00	; 0
	.db #0x01	; 1
	.db #0xFF	; 255
	.db #0xFF	; 255
	.db #0xFC	; 252
	.db #0x00	; 0
	.db #0x10	; 16
	.db #0x00	; 0
	.db #0x00	; 0
	.db #0x00	; 0
	.db #0x00	; 0
	.db #0x00	; 0
	.db #0x01	; 1
	.db #0xF3	; 243
	.db #0xFF	; 255
	.db #0xFF	; 255
	.db #0x00	; 0
	.db #0x30	; 48	'0'
	.db #0x00	; 0
	.db #0x00	; 0
	.db #0x00	; 0
	.db #0x00	; 0
	.db #0x00	; 0
	.db #0x01	; 1
	.db #0xF0	; 240
	.db #0x1F	; 31
	.db #0xFF	; 255
	.db #0xFF	; 255
	.db #0xF0	; 240
	.db #0x00	; 0
	.db #0x00	; 0
	.db #0x00	; 0
	.db #0x00	; 0
	.db #0x00	; 0
	.db #0x00	; 0
	.db #0xF8	; 248
	.db #0x00	; 0
	.db #0x07	; 7
	.db #0xFF	; 255
	.db #0xE0	; 224
	.db #0x00	; 0
	.db #0x00	; 0
	.db #0x00	; 0
	.db #0x00	; 0
	.db #0x00	; 0
	.db #0x00	; 0
	.db #0x7F	; 127
	.db #0xFF	; 255
	.db #0xFE	; 254
	.db #0xFF	; 255
	.db #0xE0	; 224
	.db #0x00	; 0
	.db #0x00	; 0
	.db #0x00	; 0
	.db #0x00	; 0
	.db #0x00	; 0
	.db #0x00	; 0
	.db #0x3F	; 63
	.db #0xFF	; 255
	.db #0x1F	; 31
	.db #0x83	; 131
	.db #0xE0	; 224
	.db #0x00	; 0
	.db #0x00	; 0
	.db #0x00	; 0
	.db #0x00	; 0
	.db #0x00	; 0
	.db #0x00	; 0
	.db #0x5F	; 95
	.db #0xF0	; 240
	.db #0x01	; 1
	.db #0xC7	; 199
	.db #0xC0	; 192
	.db #0x00	; 0
	.db #0x00	; 0
	.db #0x00	; 0
	.db #0x00	; 0
	.db #0x00	; 0
	.db #0x00	; 0
	.db #0x8F	; 143
	.db #0xC0	; 192
	.db #0x00	; 0
	.db #0x4F	; 79	'O'
	.db #0xC0	; 192
	.db #0x00	; 0
	.db #0x00	; 0
	.db #0x00	; 0
	.db #0x00	; 0
	.db #0x00	; 0
	.db #0x00	; 0
	.db #0x83	; 131
	.db #0x80	; 128
	.db #0x60	; 96
	.db #0x7F	; 127
	.db #0x80	; 128
	.db #0x00	; 0
	.db #0x00	; 0
	.db #0x00	; 0
	.db #0x00	; 0
	.db #0x00	; 0
	.db #0x01	; 1
	.db #0x00	; 0
	.db #0x01	; 1
	.db #0x90	; 144
	.db #0x7F	; 127
	.db #0x00	; 0
	.db #0x00	; 0
	.db #0x00	; 0
	.db #0x00	; 0
	.db #0x00	; 0
	.db #0x00	; 0
	.db #0x02	; 2
	.db #0x00	; 0
	.db #0x00	; 0
	.db #0xE0	; 224
	.db #0xFF	; 255
	.db #0x00	; 0
	.db #0x00	; 0
	.db #0x00	; 0
	.db #0x00	; 0
	.db #0x00	; 0
	.db #0x00	; 0
	.db #0x02	; 2
	.db #0x00	; 0
	.db #0x03	; 3
	.db #0x01	; 1
	.db #0xFE	; 254
	.db #0x00	; 0
	.db #0x00	; 0
	.db #0x00	; 0
	.db #0x00	; 0
	.db #0x00	; 0
	.db #0x00	; 0
	.db #0x04	; 4
	.db #0x00	; 0
	.db #0x0C	; 12
	.db #0x03	; 3
	.db #0xFC	; 252
	.db #0x00	; 0
	.db #0x00	; 0
	.db #0x00	; 0
	.db #0x00	; 0
	.db #0x00	; 0
	.db #0x00	; 0
	.db #0x04	; 4
	.db #0x00	; 0
	.db #0x01	; 1
	.db #0x8F	; 143
	.db #0xF8	; 248
	.db #0x00	; 0
	.db #0x00	; 0
	.db #0x00	; 0
	.db #0x00	; 0
	.db #0x00	; 0
	.db #0x00	; 0
	.db #0x03	; 3
	.db #0x00	; 0
	.db #0x07	; 7
	.db #0xCF	; 207
	.db #0xF8	; 248
	.db #0x00	; 0
	.db #0x00	; 0
	.db #0x00	; 0
	.db #0x00	; 0
	.db #0x00	; 0
	.db #0x00	; 0
	.db #0x02	; 2
	.db #0xC0	; 192
	.db #0x3F	; 63
	.db #0xC7	; 199
	.db #0xF0	; 240
	.db #0x00	; 0
	.db #0x00	; 0
	.db #0x00	; 0
	.db #0x00	; 0
	.db #0x00	; 0
	.db #0x00	; 0
	.db #0x02	; 2
	.db #0xBF	; 191
	.db #0xC3	; 195
	.db #0xC7	; 199
	.db #0xE0	; 224
	.db #0x00	; 0
	.db #0x00	; 0
	.db #0x00	; 0
	.db #0x00	; 0
	.db #0x00	; 0
	.db #0x00	; 0
	.db #0x06	; 6
	.db #0x20	; 32
	.db #0xA2	; 162
	.db #0x47	; 71	'G'
	.db #0xD0	; 208
	.db #0x00	; 0
	.db #0x00	; 0
	.db #0x00	; 0
	.db #0x00	; 0
	.db #0x00	; 0
	.db #0x00	; 0
	.db #0x09	; 9
	.db #0xC0	; 192
	.db #0xA2	; 162
	.db #0x47	; 71	'G'
	.db #0x10	; 16
	.db #0x00	; 0
	.db #0x00	; 0
	.db #0x00	; 0
	.db #0x00	; 0
	.db #0x00	; 0
	.db #0x18	; 24
	.db #0x10	; 16
	.db #0x82	; 130
	.db #0x82	; 130
	.db #0x01	; 1
	.db #0x20	; 32
	.db #0x00	; 0
	.db #0x00	; 0
	.db #0x00	; 0
	.db #0x00	; 0
	.db #0x00	; 0
	.db #0x07	; 7
	.db #0x1F	; 31
	.db #0x0D	; 13
	.db #0x44	; 68	'D'
	.db #0x03	; 3
	.db #0x20	; 32
	.db #0x00	; 0
	.db #0x00	; 0
	.db #0x00	; 0
	.db #0x00	; 0
	.db #0x00	; 0
	.db #0x00	; 0
	.db #0xFA	; 250
	.db #0x04	; 4
	.db #0x38	; 56	'8'
	.db #0x41	; 65	'A'
	.db #0x40	; 64
	.db #0x00	; 0
	.db #0x00	; 0
	.db #0x00	; 0
	.db #0x00	; 0
	.db #0x00	; 0
	.db #0x00	; 0
	.db #0x1A	; 26
	.db #0x00	; 0
	.db #0x06	; 6
	.db #0x20	; 32
	.db #0x80	; 128
	.db #0x00	; 0
	.db #0x00	; 0
	.db #0x00	; 0
	.db #0x00	; 0
	.db #0x00	; 0
	.db #0x00	; 0
	.db #0x0C	; 12
	.db #0x00	; 0
	.db #0x01	; 1
	.db #0x27	; 39
	.db #0x00	; 0
	.db #0x00	; 0
	.db #0x00	; 0
	.db #0x00	; 0
	.db #0x00	; 0
	.db #0x00	; 0
	.db #0x00	; 0
	.db #0x1C	; 28
	.db #0x18	; 24
	.db #0x3F	; 63
	.db #0x1A	; 26
	.db #0x00	; 0
	.db #0x00	; 0
	.db #0x00	; 0
	.db #0x00	; 0
	.db #0x00	; 0
	.db #0x00	; 0
	.db #0x00	; 0
	.db #0x64	; 100	'd'
	.db #0x27	; 39
	.db #0xC7	; 199
	.db #0x29	; 41
	.db #0x00	; 0
	.db #0x00	; 0
	.db #0x00	; 0
	.db #0x00	; 0
	.db #0x00	; 0
	.db #0x00	; 0
	.db #0x01	; 1
	.db #0x88	; 136
	.db #0x40	; 64
	.db #0x3F	; 63
	.db #0x28	; 40
	.db #0x80	; 128
	.db #0x00	; 0
	.db #0x00	; 0
	.db #0x00	; 0
	.db #0x00	; 0
	.db #0x00	; 0
	.db #0x02	; 2
	.db #0x08	; 8
	.db #0xBF	; 191
	.db #0xCC	; 204
	.db #0x48	; 72	'H'
	.db #0x80	; 128
	.db #0x00	; 0
	.db #0x00	; 0
	.db #0x00	; 0
	.db #0x00	; 0
	.db #0x00	; 0
	.db #0x04	; 4
	.db #0x13	; 19
	.db #0x49	; 73	'I'
	.db #0x38	; 56	'8'
	.db #0x50	; 80	'P'
	.db #0x80	; 128
	.db #0x00	; 0
	.db #0x00	; 0
	.db #0x00	; 0
	.db #0x00	; 0
	.db #0x00	; 0
	.db #0x08	; 8
	.db #0x0C	; 12
	.db #0xC9	; 201
	.db #0xF8	; 248
	.db #0x90	; 144
	.db #0x80	; 128
	.db #0x00	; 0
	.db #0x00	; 0
	.db #0x00	; 0
	.db #0x00	; 0
	.db #0x00	; 0
	.db #0x10	; 16
	.db #0x14	; 20
	.db #0xFF	; 255
	.db #0xF1	; 241
	.db #0x10	; 16
	.db #0x80	; 128
	.db #0x00	; 0
	.db #0x00	; 0
	.db #0x00	; 0
	.db #0x00	; 0
	.db #0x00	; 0
	.db #0x20	; 32
	.db #0x04	; 4
	.db #0xFC	; 252
	.db #0x21	; 33
	.db #0x20	; 32
	.db #0x60	; 96
	.db #0x00	; 0
	.db #0x00	; 0
	.db #0x00	; 0
	.db #0x00	; 0
	.db #0x00	; 0
	.db #0x40	; 64
	.db #0x09	; 9
	.db #0xE8	; 232
	.db #0x42	; 66	'B'
	.db #0x60	; 96
	.db #0x58	; 88	'X'
	.db #0x00	; 0
	.db #0x00	; 0
	.db #0x00	; 0
	.db #0x00	; 0
	.db #0x00	; 0
	.db #0x80	; 128
	.db #0x09	; 9
	.db #0xD1	; 209
	.db #0x84	; 132
	.db #0xC0	; 192
	.db #0x46	; 70	'F'
	.db #0x00	; 0
	.db #0x00	; 0
	.db #0x00	; 0
	.db #0x00	; 0
	.db #0x00	; 0
	.db #0x80	; 128
	.db #0x0A	; 10
	.db #0xFF	; 255
	.db #0x85	; 133
	.db #0x40	; 64
	.db #0x40	; 64
	.db #0x00	; 0
	.db #0x00	; 0
	.db #0x00	; 0
	.db #0x00	; 0
	.db #0x00	; 0
	.db #0x40	; 64
	.db #0x0B	; 11
	.db #0x55	; 85	'U'
	.db #0x0A	; 10
	.db #0x80	; 128
	.db #0x40	; 64
	.db #0x00	; 0
	.db #0x00	; 0
	.db #0x00	; 0
	.db #0x00	; 0
	.db #0x00	; 0
	.db #0x30	; 48	'0'
	.db #0x15	; 21
	.db #0x5A	; 90	'Z'
	.db #0x0C	; 12
	.db #0x80	; 128
	.db #0x40	; 64
	.db #0x00	; 0
	.db #0x00	; 0
	.db #0x00	; 0
	.db #0x00	; 0
	.db #0x00	; 0
	.db #0x08	; 8
	.db #0x1A	; 26
	.db #0xA4	; 164
	.db #0x31	; 49	'1'
	.db #0x00	; 0
	.db #0x40	; 64
	.db #0x00	; 0
	.db #0x00	; 0
	.db #0x00	; 0
	.db #0x00	; 0
	.db #0x00	; 0
	.db #0x08	; 8
	.db #0x18	; 24
	.db #0x08	; 8
	.db #0x41	; 65	'A'
	.db #0x00	; 0
	.db #0x40	; 64
	.db #0x00	; 0
	.db #0x00	; 0
	.db #0x00	; 0
	.db #0x00	; 0
	.db #0x00	; 0
	.db #0x7C	; 124
	.db #0x17	; 23
	.db #0xF0	; 240
	.db #0x82	; 130
	.db #0x00	; 0
	.db #0x40	; 64
	.db #0x00	; 0
	.db #0x00	; 0
	.db #0x00	; 0
	.db #0x00	; 0
	.db #0x00	; 0
	.db #0x00	; 0
	.db #0x20	; 32
	.db #0x01	; 1
	.db #0x02	; 2
	.db #0x00	; 0
	.db #0x40	; 64
	.db #0x00	; 0
	.db #0x00	; 0
	.db #0x00	; 0
	.db #0x00	; 0
	.db #0x00	; 0
	.db #0x00	; 0
	.db #0x60	; 96
	.db #0x02	; 2
	.db #0x04	; 4
	.db #0x00	; 0
	.db #0x40	; 64
	.db #0x00	; 0
	.db #0x00	; 0
	.db #0x00	; 0
	.db #0x00	; 0
	.db #0x00	; 0
	.db #0x00	; 0
	.db #0xA0	; 160
	.db #0x0D	; 13
	.db #0x08	; 8
	.db #0x00	; 0
	.db #0x20	; 32
	.db #0x00	; 0
	.db #0x00	; 0
	.db #0x00	; 0
	.db #0x00	; 0
	.db #0x00	; 0
	.db #0x01	; 1
	.db #0x10	; 16
	.db #0x10	; 16
	.db #0x88	; 136
	.db #0x03	; 3
	.db #0xC0	; 192
	.db #0x00	; 0
	.db #0x00	; 0
	.db #0x00	; 0
	.db #0x00	; 0
	.db #0x00	; 0
	.db #0x01	; 1
	.db #0x0F	; 15
	.db #0xE1	; 225
	.db #0x11	; 17
	.db #0x5C	; 92
	.db #0x00	; 0
	.db #0x00	; 0
	.db #0x00	; 0
	.db #0x00	; 0
_girla:
	.db #0x54	; 84	'T'
	.db #0x30	; 48	'0'
	.db #0xCA	; 202
	.db #0x04	; 4
	.db #0x53	; 83	'S'
	.db #0x3C	; 60
	.db #0x88	; 136
	.db #0xAE	; 174
	.db #0xBD	; 189
	.db #0x2B	; 43
	.db #0xC8	; 200
	.db #0x04	; 4
	.db #0x30	; 48	'0'
	.db #0xA8	; 168
	.db #0x50	; 80	'P'
	.db #0x7B	; 123
	.db #0xAC	; 172
	.db #0x42	; 66	'B'
	.db #0x1E	; 30
	.db #0x1E	; 30
	.db #0x8B	; 139
	.db #0xA8	; 168
	.db #0x04	; 4
	.db #0x10	; 16
	.db #0xDD	; 221
	.db #0x0A	; 10
	.db #0xAB	; 171
	.db #0x5E	; 94
	.db #0x10	; 16
	.db #0x4F	; 79	'O'
	.db #0x4E	; 78	'N'
	.db #0x2D	; 45
	.db #0xC8	; 200
	.db #0x84	; 132
	.db #0x20	; 32
	.db #0xD4	; 212
	.db #0x51	; 81	'Q'
	.db #0x77	; 119	'w'
	.db #0x2E	; 46
	.db #0x85	; 133
	.db #0x07	; 7
	.db #0x07	; 7
	.db #0x06	; 6
	.db #0xD9	; 217
	.db #0x00	; 0
	.db #0x10	; 16
	.db #0xB9	; 185
	.db #0x16	; 22
	.db #0xD7	; 215
	.db #0xFE	; 254
	.db #0x20	; 32
	.db #0x27	; 39
	.db #0xAB	; 171
	.db #0x53	; 83	'S'
	.db #0xC8	; 200
	.db #0x84	; 132
	.db #0x10	; 16
	.db #0xD8	; 216
	.db #0x2B	; 43
	.db #0x7E	; 126
	.db #0xFF	; 255
	.db #0x94	; 148
	.db #0x81	; 129
	.db #0x83	; 131
	.db #0xB5	; 181
	.db #0xA9	; 169
	.db #0x02	; 2
	.db #0x00	; 0
	.db #0x7A	; 122	'z'
	.db #0x95	; 149
	.db #0xBF	; 191
	.db #0xFF	; 255
	.db #0xE0	; 224
	.db #0x29	; 41
	.db #0xD7	; 215
	.db #0xFF	; 255
	.db #0xF9	; 249
	.db #0x00	; 0
	.db #0x10	; 16
	.db #0xD8	; 216
	.db #0x2F	; 47
	.db #0x6B	; 107	'k'
	.db #0x55	; 85	'U'
	.db #0xF5	; 245
	.db #0x02	; 2
	.db #0x6F	; 111	'o'
	.db #0xFF	; 255
	.db #0xD8	; 216
	.db #0x80	; 128
	.db #0x00	; 0
	.db #0x71	; 113	'q'
	.db #0x36	; 54	'6'
	.db #0xFF	; 255
	.db #0xFF	; 255
	.db #0x90	; 144
	.db #0x48	; 72	'H'
	.db #0x3F	; 63
	.db #0xFF	; 255
	.db #0xE9	; 233
	.db #0x00	; 0
	.db #0x00	; 0
	.db #0xF4	; 244
	.db #0x7F	; 127
	.db #0x6B	; 107	'k'
	.db #0xFF	; 255
	.db #0xEA	; 234
	.db #0x21	; 33
	.db #0x6B	; 107	'k'
	.db #0xFE	; 254
	.db #0xD9	; 217
	.db #0x00	; 0
	.db #0x00	; 0
	.db #0xF1	; 241
	.db #0x2B	; 43
	.db #0xF7	; 247
	.db #0xFF	; 255
	.db #0xFA	; 250
	.db #0x84	; 132
	.db #0x4F	; 79	'O'
	.db #0xFF	; 255
	.db #0xF8	; 248
	.db #0x80	; 128
	.db #0x10	; 16
	.db #0x74	; 116	't'
	.db #0x7E	; 126
	.db #0xF7	; 247
	.db #0x77	; 119	'w'
	.db #0xF4	; 244
	.db #0x11	; 17
	.db #0x37	; 55	'7'
	.db #0xFB	; 251
	.db #0xF9	; 249
	.db #0xA0	; 160
	.db #0x00	; 0
	.db #0x31	; 49	'1'
	.db #0x57	; 87	'W'
	.db #0x69	; 105	'i'
	.db #0xDF	; 223
	.db #0x64	; 100	'd'
	.db #0x44	; 68	'D'
	.db #0x05	; 5
	.db #0xF3	; 243
	.db #0xF9	; 249
	.db #0xC0	; 192
	.db #0x80	; 128
	.db #0x30	; 48	'0'
	.db #0x7D	; 125
	.db #0xF4	; 244
	.db #0x7C	; 124
	.db #0x81	; 129
	.db #0x10	; 16
	.db #0x92	; 146
	.db #0x77	; 119	'w'
	.db #0x79	; 121	'y'
	.db #0xA0	; 160
	.db #0x00	; 0
	.db #0xB5	; 181
	.db #0x6B	; 107	'k'
	.db #0xF5	; 245
	.db #0x3F	; 63
	.db #0xD4	; 212
	.db #0x42	; 66	'B'
	.db #0x1D	; 29
	.db #0x5D	; 93
	.db #0xFC	; 252
	.db #0xE0	; 224
	.db #0x80	; 128
	.db #0x30	; 48	'0'
	.db #0xFE	; 254
	.db #0xF2	; 242
	.db #0x32	; 50	'2'
	.db #0x00	; 0
	.db #0x08	; 8
	.db #0x86	; 134
	.db #0xC5	; 197
	.db #0x79	; 121	'y'
	.db #0x60	; 96
	.db #0x80	; 128
	.db #0x75	; 117	'u'
	.db #0x7C	; 124
	.db #0xF4	; 244
	.db #0x90	; 144
	.db #0x92	; 146
	.db #0xA0	; 160
	.db #0x20	; 32
	.db #0x2A	; 42
	.db #0xBC	; 188
	.db #0xE0	; 224
	.db #0x80	; 128
	.db #0xBB	; 187
	.db #0xD9	; 217
	.db #0xB4	; 180
	.db #0x14	; 20
	.db #0x20	; 32
	.db #0x05	; 5
	.db #0x12	; 18
	.db #0x01	; 1
	.db #0x7C	; 124
	.db #0xB0	; 176
	.db #0x80	; 128
	.db #0x3A	; 58
	.db #0xA8	; 168
	.db #0xF5	; 245
	.db #0x52	; 82	'R'
	.db #0x8A	; 138
	.db #0x48	; 72	'H'
	.db #0x40	; 64
	.db #0xA5	; 165
	.db #0x5D	; 93
	.db #0x70	; 112	'p'
	.db #0x40	; 64
	.db #0xBF	; 191
	.db #0xC5	; 197
	.db #0xF2	; 242
	.db #0x18	; 24
	.db #0x00	; 0
	.db #0x11	; 17
	.db #0x14	; 20
	.db #0x0A	; 10
	.db #0xFE	; 254
	.db #0x50	; 80	'P'
	.db #0x40	; 64
	.db #0x7F	; 127
	.db #0x51	; 81	'Q'
	.db #0xBC	; 188
	.db #0x91	; 145
	.db #0x29	; 41
	.db #0x40	; 64
	.db #0x41	; 65	'A'
	.db #0x45	; 69	'E'
	.db #0x5C	; 92
	.db #0x70	; 112	'p'
	.db #0x40	; 64
	.db #0x7F	; 127
	.db #0x85	; 133
	.db #0xFE	; 254
	.db #0x10	; 16
	.db #0x02	; 2
	.db #0x0A	; 10
	.db #0x10	; 16
	.db #0x12	; 18
	.db #0x6F	; 111	'o'
	.db #0x30	; 48	'0'
	.db #0x60	; 96
	.db #0x7F	; 127
	.db #0xC1	; 193
	.db #0xBD	; 189
	.db #0x55	; 85	'U'
	.db #0x50	; 80	'P'
	.db #0x40	; 64
	.db #0x85	; 133
	.db #0x4A	; 74	'J'
	.db #0xBE	; 190
	.db #0x30	; 48	'0'
	.db #0x20	; 32
	.db #0x3E	; 62
	.db #0x2B	; 43
	.db #0xFA	; 250
	.db #0x80	; 128
	.db #0x05	; 5
	.db #0x14	; 20
	.db #0x48	; 72	'H'
	.db #0x04	; 4
	.db #0xDF	; 223
	.db #0x18	; 24
	.db #0x10	; 16
	.db #0x6F	; 111	'o'
	.db #0x03	; 3
	.db #0x5B	; 91
	.db #0x29	; 41
	.db #0x20	; 32
	.db #0x41	; 65	'A'
	.db #0x01	; 1
	.db #0x29	; 41
	.db #0x6F	; 111	'o'
	.db #0x48	; 72	'H'
	.db #0x10	; 16
	.db #0x4E	; 78	'N'
	.db #0x4B	; 75	'K'
	.db #0xC2	; 194
	.db #0x02	; 2
	.db #0x12	; 18
	.db #0x14	; 20
	.db #0x54	; 84	'T'
	.db #0x12	; 18
	.db #0xBB	; 187
	.db #0x18	; 24
	.db #0x10	; 16
	.db #0x4E	; 78	'N'
	.db #0x27	; 39
	.db #0x8A	; 138
	.db #0x90	; 144
	.db #0x84	; 132
	.db #0x40	; 64
	.db #0x00	; 0
	.db #0xA5	; 165
	.db #0x6F	; 111	'o'
	.db #0x88	; 136
	.db #0x00	; 0
	.db #0x46	; 70	'F'
	.db #0x0F	; 15
	.db #0x44	; 68	'D'
	.db #0x44	; 68	'D'
	.db #0x21	; 33
	.db #0x12	; 18
	.db #0x92	; 146
	.db #0x09	; 9
	.db #0xBF	; 191
	.db #0xA8	; 168
	.db #0x10	; 16
	.db #0x54	; 84	'T'
	.db #0xAF	; 175
	.db #0x96	; 150
	.db #0x91	; 145
	.db #0x14	; 20
	.db #0x40	; 64
	.db #0x40	; 64
	.db #0xA4	; 164
	.db #0xDF	; 223
	.db #0xCA	; 202
	.db #0x80	; 128
	.db #0x48	; 72	'H'
	.db #0x0F	; 15
	.db #0x0A	; 10
	.db #0x44	; 68	'D'
	.db #0x4C	; 76	'L'
	.db #0x0A	; 10
	.db #0x4A	; 74	'J'
	.db #0x15	; 21
	.db #0x7E	; 126
	.db #0xC4	; 196
	.db #0x10	; 16
	.db #0x69	; 105	'i'
	.db #0x5E	; 94
	.db #0x4D	; 77	'M'
	.db #0x20	; 32
	.db #0x8D	; 141
	.db #0x40	; 64
	.db #0x30	; 48	'0'
	.db #0xAA	; 170
	.db #0xBB	; 187
	.db #0xE9	; 233
	.db #0x10	; 16
	.db #0x50	; 80	'P'
	.db #0x1D	; 29
	.db #0x14	; 20
	.db #0x92	; 146
	.db #0x17	; 23
	.db #0x15	; 21
	.db #0x5D	; 93
	.db #0x13	; 19
	.db #0xFF	; 255
	.db #0xE2	; 226
	.db #0x10	; 16
	.db #0x65	; 101	'e'
	.db #0x3C	; 60
	.db #0x0E	; 14
	.db #0x44	; 68	'D'
	.db #0x41	; 65	'A'
	.db #0xC3	; 195
	.db #0x9C	; 156
	.db #0xA9	; 169
	.db #0x5F	; 95
	.db #0xF1	; 241
	.db #0x10	; 16
	.db #0x30	; 48	'0'
	.db #0x69	; 105	'i'
	.db #0x4D	; 77	'M'
	.db #0x21	; 33
	.db #0x08	; 8
	.db #0x48	; 72	'H'
	.db #0x46	; 70	'F'
	.db #0x46	; 70	'F'
	.db #0xF7	; 247
	.db #0x74	; 116	't'
	.db #0x10	; 16
	.db #0x3A	; 58
	.db #0x38	; 56	'8'
	.db #0x2B	; 43
	.db #0x14	; 20
	.db #0x22	; 34
	.db #0x25	; 37
	.db #0x0B	; 11
	.db #0x2A	; 42
	.db #0xBF	; 191
	.db #0xD9	; 217
	.db #0x10	; 16
	.db #0x28	; 40
	.db #0xB2	; 178
	.db #0x9B	; 155
	.db #0x50	; 80	'P'
	.db #0x88	; 136
	.db #0x98	; 152
	.db #0x46	; 70	'F'
	.db #0x92	; 146
	.db #0xFF	; 255
	.db #0xF8	; 248
	.db #0xB0	; 176
	.db #0x5A	; 90	'Z'
	.db #0x30	; 48	'0'
	.db #0x1D	; 29
	.db #0x89	; 137
	.db #0x22	; 34
	.db #0x29	; 41
	.db #0x13	; 19
	.db #0x4B	; 75	'K'
	.db #0x56	; 86	'V'
	.db #0xEA	; 234
	.db #0x90	; 144
	.db #0x28	; 40
	.db #0x7A	; 122	'z'
	.db #0x54	; 84	'T'
	.db #0xD2	; 210
	.db #0x0E	; 14
	.db #0x98	; 152
	.db #0x01	; 1
	.db #0x29	; 41
	.db #0x7F	; 127
	.db #0xBD	; 189
	.db #0x30	; 48	'0'
	.db #0xB1	; 177
	.db #0x30	; 48	'0'
	.db #0xB7	; 183
	.db #0x61	; 97	'a'
	.db #0x5D	; 93
	.db #0xEF	; 239
	.db #0xAA	; 170
	.db #0x96	; 150
	.db #0xFF	; 255
	.db #0xF5	; 245
	.db #0x30	; 48	'0'
	.db #0x34	; 52	'4'
	.db #0x34	; 52	'4'
	.db #0x3B	; 59
	.db #0x54	; 84	'T'
	.db #0x36	; 54	'6'
	.db #0x10	; 16
	.db #0xC1	; 193
	.db #0xA5	; 165
	.db #0xFB	; 251
	.db #0xDD	; 221
	.db #0x30	; 48	'0'
	.db #0xA1	; 161
	.db #0x32	; 50	'2'
	.db #0x3A	; 58
	.db #0xD2	; 210
	.db #0xFF	; 255
	.db #0xFF	; 255
	.db #0x74	; 116	't'
	.db #0x96	; 150
	.db #0xFF	; 255
	.db #0x71	; 113	'q'
	.db #0x30	; 48	'0'
	.db #0x34	; 52	'4'
	.db #0x38	; 56	'8'
	.db #0xBD	; 189
	.db #0xB1	; 177
	.db #0xFF	; 255
	.db #0xFF	; 255
	.db #0xFB	; 251
	.db #0x55	; 85	'U'
	.db #0xF7	; 247
	.db #0xEA	; 234
	.db #0x90	; 144
	.db #0xA1	; 161
	.db #0x32	; 50	'2'
	.db #0x2E	; 46
	.db #0xCC	; 204
	.db #0x77	; 119	'w'
	.db #0xB5	; 181
	.db #0x70	; 112	'p'
	.db #0x97	; 151
	.db #0xFE	; 254
	.db #0xF9	; 249
	.db #0x30	; 48	'0'
	.db #0x28	; 40
	.db #0x50	; 80	'P'
	.db #0xBD	; 189
	.db #0x6A	; 106	'j'
	.db #0x98	; 152
	.db #0x2A	; 42
	.db #0xE4	; 228
	.db #0x2B	; 43
	.db #0xFF	; 255
	.db #0x57	; 87	'W'
	.db #0x10	; 16
	.db #0xA2	; 162
	.db #0x34	; 52	'4'
	.db #0x1F	; 31
	.db #0x29	; 41
	.db #0x0F	; 15
	.db #0xEB	; 235
	.db #0x82	; 130
	.db #0xAF	; 175
	.db #0xFB	; 251
	.db #0xE9	; 233
	.db #0x10	; 16
	.db #0x28	; 40
	.db #0x92	; 146
	.db #0x5F	; 95
	.db #0xD4	; 212
	.db #0xA3	; 163
	.db #0xFF	; 255
	.db #0x50	; 80	'P'
	.db #0xAF	; 175
	.db #0xFE	; 254
	.db #0xBA	; 186
	.db #0x80	; 128
	.db #0x52	; 82	'R'
	.db #0x30	; 48	'0'
	.db #0x98	; 152
	.db #0xB5	; 181
	.db #0x08	; 8
	.db #0x08	; 8
	.db #0x0A	; 10
	.db #0xBF	; 191
	.db #0xF7	; 247
	.db #0x52	; 82	'R'
	.db #0x00	; 0
	.db #0x20	; 32
	.db #0x94	; 148
	.db #0x18	; 24
	.db #0x6A	; 106	'j'
	.db #0x42	; 66	'B'
	.db #0x42	; 66	'B'
	.db #0x41	; 65	'A'
	.db #0x3F	; 63
	.db #0xED	; 237
	.db #0xDA	; 218
	.db #0x80	; 128
_girlb:
	.db #0x54	; 84	'T'
	.db #0x30	; 48	'0'
	.db #0x37	; 55	'7'
	.db #0x7C	; 124
	.db #0x01	; 1
	.db #0xE4	; 228
	.db #0x00	; 0
	.db #0x00	; 0
	.db #0x00	; 0
	.db #0x00	; 0
	.db #0x05	; 5
	.db #0xC4	; 196
	.db #0x20	; 32
	.db #0x37	; 55	'7'
	.db #0xDC	; 220
	.db #0x01	; 1
	.db #0xC0	; 192
	.db #0x7F	; 127
	.db #0xE0	; 224
	.db #0x00	; 0
	.db #0x00	; 0
	.db #0x07	; 7
	.db #0x04	; 4
	.db #0x20	; 32
	.db #0x3D	; 61
	.db #0xEC	; 236
	.db #0x01	; 1
	.db #0xC0	; 192
	.db #0xA7	; 167
	.db #0xF8	; 248
	.db #0x00	; 0
	.db #0x00	; 0
	.db #0x0C	; 12
	.db #0x0C	; 12
	.db #0x20	; 32
	.db #0x3B	; 59
	.db #0xBC	; 188
	.db #0x01	; 1
	.db #0xC0	; 192
	.db #0x00	; 0
	.db #0x1F	; 31
	.db #0x00	; 0
	.db #0x00	; 0
	.db #0x00	; 0
	.db #0x0C	; 12
	.db #0x00	; 0
	.db #0x3B	; 59
	.db #0x6C	; 108	'l'
	.db #0x01	; 1
	.db #0xC0	; 192
	.db #0x00	; 0
	.db #0x03	; 3
	.db #0x00	; 0
	.db #0x00	; 0
	.db #0x00	; 0
	.db #0xA8	; 168
	.db #0x40	; 64
	.db #0x35	; 53	'5'
	.db #0xEC	; 236
	.db #0x01	; 1
	.db #0xC0	; 192
	.db #0x00	; 0
	.db #0x00	; 0
	.db #0x00	; 0
	.db #0x00	; 0
	.db #0x05	; 5
	.db #0x09	; 9
	.db #0x80	; 128
	.db #0x27	; 39
	.db #0x5C	; 92
	.db #0x03	; 3
	.db #0xC0	; 192
	.db #0x5A	; 90	'Z'
	.db #0x80	; 128
	.db #0x00	; 0
	.db #0x00	; 0
	.db #0x3E	; 62
	.db #0xE8	; 232
	.db #0x00	; 0
	.db #0x65	; 101	'e'
	.db #0xC8	; 200
	.db #0x03	; 3
	.db #0xC0	; 192
	.db #0x1F	; 31
	.db #0xFC	; 252
	.db #0x00	; 0
	.db #0x00	; 0
	.db #0x6F	; 111	'o'
	.db #0x98	; 152
	.db #0x00	; 0
	.db #0x42	; 66	'B'
	.db #0x58	; 88	'X'
	.db #0x03	; 3
	.db #0x80	; 128
	.db #0xFF	; 255
	.db #0xF8	; 248
	.db #0x00	; 0
	.db #0x01	; 1
	.db #0xBF	; 191
	.db #0xE0	; 224
	.db #0x30	; 48	'0'
	.db #0x81	; 129
	.db #0x58	; 88	'X'
	.db #0x03	; 3
	.db #0x81	; 129
	.db #0xFD	; 253
	.db #0xFC	; 252
	.db #0x00	; 0
	.db #0x03	; 3
	.db #0x6C	; 108	'l'
	.db #0x00	; 0
	.db #0xC0	; 192
	.db #0x84	; 132
	.db #0xB0	; 176
	.db #0x07	; 7
	.db #0x00	; 0
	.db #0x70	; 112	'p'
	.db #0x72	; 114	'r'
	.db #0x00	; 0
	.db #0x03	; 3
	.db #0x7C	; 124
	.db #0x10	; 16
	.db #0x00	; 0
	.db #0x00	; 0
	.db #0xA0	; 160
	.db #0x0F	; 15
	.db #0xC0	; 192
	.db #0x00	; 0
	.db #0x30	; 48	'0'
	.db #0x00	; 0
	.db #0x06	; 6
	.db #0x70	; 112	'p'
	.db #0x22	; 34
	.db #0x00	; 0
	.db #0x00	; 0
	.db #0x60	; 96
	.db #0x0E	; 14
	.db #0xC0	; 192
	.db #0x39	; 57	'9'
	.db #0xE0	; 224
	.db #0x00	; 0
	.db #0x06	; 6
	.db #0x60	; 96
	.db #0x24	; 36
	.db #0x00	; 0
	.db #0x00	; 0
	.db #0x40	; 64
	.db #0x3C	; 60
	.db #0xC0	; 192
	.db #0x0F	; 15
	.db #0xC7	; 199
	.db #0x00	; 0
	.db #0x0C	; 12
	.db #0x7F	; 127
	.db #0x6C	; 108	'l'
	.db #0x00	; 0
	.db #0x00	; 0
	.db #0x40	; 64
	.db #0x79	; 121	'y'
	.db #0x80	; 128
	.db #0x03	; 3
	.db #0xBC	; 188
	.db #0x00	; 0
	.db #0x0C	; 12
	.db #0x00	; 0
	.db #0x48	; 72	'H'
	.db #0x00	; 0
	.db #0x00	; 0
	.db #0x00	; 0
	.db #0x61	; 97	'a'
	.db #0x80	; 128
	.db #0x00	; 0
	.db #0x20	; 32
	.db #0x00	; 0
	.db #0x0C	; 12
	.db #0x00	; 0
	.db #0x78	; 120	'x'
	.db #0x00	; 0
	.db #0x00	; 0
	.db #0x01	; 1
	.db #0xBB	; 187
	.db #0xD0	; 208
	.db #0x00	; 0
	.db #0x00	; 0
	.db #0x00	; 0
	.db #0x0E	; 14
	.db #0x01	; 1
	.db #0x78	; 120	'x'
	.db #0x80	; 128
	.db #0x00	; 0
	.db #0x06	; 6
	.db #0x73	; 115	's'
	.db #0x00	; 0
	.db #0x00	; 0
	.db #0x00	; 0
	.db #0x00	; 0
	.db #0x06	; 6
	.db #0x00	; 0
	.db #0x78	; 120	'x'
	.db #0x80	; 128
	.db #0x01	; 1
	.db #0x7B	; 123
	.db #0xC6	; 198
	.db #0x90	; 144
	.db #0x00	; 0
	.db #0x00	; 0
	.db #0x00	; 0
	.db #0x06	; 6
	.db #0x02	; 2
	.db #0x79	; 121	'y'
	.db #0x80	; 128
	.db #0x1F	; 31
	.db #0x96	; 150
	.db #0x06	; 6
	.db #0x44	; 68	'D'
	.db #0x00	; 0
	.db #0x00	; 0
	.db #0x00	; 0
	.db #0x06	; 6
	.db #0x02	; 2
	.db #0xFD	; 253
	.db #0x80	; 128
	.db #0x78	; 120	'x'
	.db #0xF0	; 240
	.db #0x0D	; 13
	.db #0x20	; 32
	.db #0x00	; 0
	.db #0x00	; 0
	.db #0x00	; 0
	.db #0x07	; 7
	.db #0x01	; 1
	.db #0x7F	; 127
	.db #0x80	; 128
	.db #0xCE	; 206
	.db #0x30	; 48	'0'
	.db #0x1A	; 26
	.db #0x90	; 144
	.db #0x00	; 0
	.db #0x00	; 0
	.db #0x00	; 0
	.db #0x03	; 3
	.db #0x05	; 5
	.db #0x6F	; 111	'o'
	.db #0x90	; 144
	.db #0x30	; 48	'0'
	.db #0x30	; 48	'0'
	.db #0x1B	; 27
	.db #0x40	; 64
	.db #0x00	; 0
	.db #0x00	; 0
	.db #0x00	; 0
	.db #0x03	; 3
	.db #0x02	; 2
	.db #0xF7	; 247
	.db #0x90	; 144
	.db #0xE0	; 224
	.db #0x30	; 48	'0'
	.db #0x35	; 53	'5'
	.db #0x54	; 84	'T'
	.db #0x00	; 0
	.db #0x00	; 0
	.db #0x00	; 0
	.db #0x01	; 1
	.db #0x82	; 130
	.db #0xE7	; 231
	.db #0xC0	; 192
	.db #0x80	; 128
	.db #0x70	; 112	'p'
	.db #0x7E	; 126
	.db #0xA0	; 160
	.db #0x00	; 0
	.db #0x00	; 0
	.db #0x00	; 0
	.db #0x00	; 0
	.db #0x82	; 130
	.db #0xF1	; 241
	.db #0xC0	; 192
	.db #0x00	; 0
	.db #0x30	; 48	'0'
	.db #0x6B	; 107	'k'
	.db #0x55	; 85	'U'
	.db #0x00	; 0
	.db #0x00	; 0
	.db #0x00	; 0
	.db #0x00	; 0
	.db #0x81	; 129
	.db #0x60	; 96
	.db #0xE0	; 224
	.db #0x00	; 0
	.db #0x38	; 56	'8'
	.db #0x7D	; 125
	.db #0xAA	; 170
	.db #0x00	; 0
	.db #0x00	; 0
	.db #0x00	; 0
	.db #0x00	; 0
	.db #0xC2	; 194
	.db #0xF6	; 246
	.db #0x70	; 112	'p'
	.db #0x01	; 1
	.db #0x1E	; 30
	.db #0xEE	; 238
	.db #0xA9	; 169
	.db #0x00	; 0
	.db #0x00	; 0
	.db #0x10	; 16
	.db #0x00	; 0
	.db #0x83	; 131
	.db #0x6C	; 108	'l'
	.db #0x00	; 0
	.db #0x01	; 1
	.db #0x1F	; 31
	.db #0xF5	; 245
	.db #0x55	; 85	'U'
	.db #0x00	; 0
	.db #0x00	; 0
	.db #0x10	; 16
	.db #0x00	; 0
	.db #0x41	; 65	'A'
	.db #0x7C	; 124
	.db #0x10	; 16
	.db #0x01	; 1
	.db #0x44	; 68	'D'
	.db #0xFE	; 254
	.db #0xAD	; 173
	.db #0x00	; 0
	.db #0x00	; 0
	.db #0x38	; 56	'8'
	.db #0x00	; 0
	.db #0x85	; 133
	.db #0xFC	; 252
	.db #0x70	; 112	'p'
	.db #0x01	; 1
	.db #0x0A	; 10
	.db #0xEB	; 235
	.db #0xD5	; 213
	.db #0x40	; 64
	.db #0x00	; 0
	.db #0x1F	; 31
	.db #0xE0	; 224
	.db #0x04	; 4
	.db #0xEC	; 236
	.db #0xC0	; 192
	.db #0x01	; 1
	.db #0xA5	; 165
	.db #0xFD	; 253
	.db #0x52	; 82	'R'
	.db #0x00	; 0
	.db #0x00	; 0
	.db #0x1C	; 28
	.db #0x00	; 0
	.db #0x15	; 21
	.db #0xFD	; 253
	.db #0xC0	; 192
	.db #0x60	; 96
	.db #0x8F	; 143
	.db #0xEB	; 235
	.db #0x54	; 84	'T'
	.db #0x00	; 0
	.db #0x00	; 0
	.db #0x00	; 0
	.db #0x00	; 0
	.db #0x18	; 24
	.db #0xDD	; 221
	.db #0x80	; 128
	.db #0x71	; 113	'q'
	.db #0xAA	; 170
	.db #0xF5	; 245
	.db #0xA9	; 169
	.db #0x40	; 64
	.db #0x00	; 0
	.db #0x00	; 0
	.db #0x00	; 0
	.db #0x0D	; 13
	.db #0xDF	; 223
	.db #0x80	; 128
	.db #0xB9	; 185
	.db #0xAB	; 171
	.db #0xBB	; 187
	.db #0x54	; 84	'T'
	.db #0x00	; 0
	.db #0x00	; 0
	.db #0x00	; 0
	.db #0x00	; 0
	.db #0x19	; 25
	.db #0xDF	; 223
	.db #0x80	; 128
	.db #0xF9	; 249
	.db #0xAE	; 174
	.db #0xFD	; 253
	.db #0x52	; 82	'R'
	.db #0x80	; 128
	.db #0x00	; 0
	.db #0x00	; 0
	.db #0x00	; 0
	.db #0x11	; 17
	.db #0x9F	; 159
	.db #0x80	; 128
	.db #0xBD	; 189
	.db #0xA3	; 163
	.db #0xDD	; 221
	.db #0x69	; 105	'i'
	.db #0x20	; 32
	.db #0x00	; 0
	.db #0x00	; 0
	.db #0x00	; 0
	.db #0x3B	; 59
	.db #0x8F	; 143
	.db #0x80	; 128
	.db #0xDE	; 222
	.db #0xCA	; 202
	.db #0xEE	; 238
	.db #0x9A	; 154
	.db #0x00	; 0
	.db #0x00	; 0
	.db #0x00	; 0
	.db #0x00	; 0
	.db #0x17	; 23
	.db #0x1F	; 31
	.db #0xC0	; 192
	.db #0xFF	; 255
	.db #0xA3	; 163
	.db #0xF7	; 247
	.db #0xAC	; 172
	.db #0xA0	; 160
	.db #0x00	; 0
	.db #0x03	; 3
	.db #0xCF	; 207
	.db #0x2F	; 47
	.db #0x2F	; 47
	.db #0xC0	; 192
	.db #0xDE	; 222
	.db #0xC1	; 193
	.db #0x7B	; 123
	.db #0xF5	; 245
	.db #0x00	; 0
	.db #0x00	; 0
	.db #0x0E	; 14
	.db #0xFB	; 251
	.db #0x8E	; 142
	.db #0x67	; 103	'g'
	.db #0xC0	; 192
	.db #0xFF	; 255
	.db #0xA1	; 161
	.db #0xDF	; 223
	.db #0xDA	; 218
	.db #0x20	; 32
	.db #0x00	; 0
	.db #0x3A	; 58
	.db #0x45	; 69	'E'
	.db #0xBC	; 188
	.db #0xEB	; 235
	.db #0xE0	; 224
	.db #0x76	; 118	'v'
	.db #0xCD	; 205
	.db #0x75	; 117	'u'
	.db #0xEA	; 234
	.db #0x80	; 128
	.db #0x00	; 0
	.db #0x74	; 116	't'
	.db #0xF9	; 249
	.db #0x9D	; 157
	.db #0xA3	; 163
	.db #0xE0	; 224
	.db #0xEF	; 239
	.db #0xAE	; 174
	.db #0xFF	; 255
	.db #0xF6	; 246
	.db #0x40	; 64
	.db #0x00	; 0
	.db #0xFF	; 255
	.db #0x3F	; 63
	.db #0x3B	; 59
	.db #0xE8	; 232
	.db #0xF0	; 240
	.db #0xFF	; 255
	.db #0x47	; 71	'G'
	.db #0xBD	; 189
	.db #0xFB	; 251
	.db #0x48	; 72	'H'
	.db #0x00	; 0
	.db #0x30	; 48	'0'
	.db #0x3E	; 62
	.db #0x33	; 51	'3'
	.db #0xD6	; 214
	.db #0xF0	; 240
	.db #0xBF	; 191
	.db #0xA6	; 166
	.db #0xFD	; 253
	.db #0xFB	; 251
	.db #0x00	; 0
	.db #0x00	; 0
	.db #0x30	; 48	'0'
	.db #0x56	; 86	'V'
	.db #0x77	; 119	'w'
	.db #0x78	; 120	'x'
	.db #0xD0	; 208
	.db #0xF6	; 246
	.db #0xC6	; 198
	.db #0xBE	; 190
	.db #0xFD	; 253
	.db #0x40	; 64
	.db #0x00	; 0
	.db #0x38	; 56	'8'
	.db #0x5C	; 92
	.db #0x77	; 119	'w'
	.db #0xFD	; 253
	.db #0xC0	; 192
	.db #0x5F	; 95
	.db #0x46	; 70	'F'
	.db #0xFD	; 253
	.db #0x7D	; 125
	.db #0x80	; 128
	.db #0x00	; 0
	.db #0x0F	; 15
	.db #0xF8	; 248
	.db #0x67	; 103	'g'
	.db #0xB7	; 183
	.db #0x80	; 128
	.db #0x7E	; 126
	.db #0x86	; 134
	.db #0x9E	; 158
	.db #0xFC	; 252
	.db #0x90	; 144
	.db #0x00	; 0
	.db #0x00	; 0
	.db #0x00	; 0
	.db #0x67	; 103	'g'
	.db #0x7F	; 127
	.db #0x80	; 128
_girlc:
	.db #0x54	; 84	'T'
	.db #0x30	; 48	'0'
	.db #0x01	; 1
	.db #0xFB	; 251
	.db #0xFC	; 252
	.db #0x3F	; 63
	.db #0xFF	; 255
	.db #0xFD	; 253
	.db #0xFF	; 255
	.db #0xE5	; 229
	.db #0x42	; 66	'B'
	.db #0xFC	; 252
	.db #0x00	; 0
	.db #0x03	; 3
	.db #0xF7	; 247
	.db #0xF8	; 248
	.db #0x37	; 55	'7'
	.db #0xFF	; 255
	.db #0xFD	; 253
	.db #0xFF	; 255
	.db #0xE2	; 226
	.db #0xB2	; 178
	.db #0xFE	; 254
	.db #0x00	; 0
	.db #0x03	; 3
	.db #0x9F	; 159
	.db #0xF8	; 248
	.db #0x6E	; 110	'n'
	.db #0xFD	; 253
	.db #0xFD	; 253
	.db #0xFF	; 255
	.db #0xA3	; 163
	.db #0xBA	; 186
	.db #0xFE	; 254
	.db #0x00	; 0
	.db #0x07	; 7
	.db #0x2F	; 47
	.db #0xF0	; 240
	.db #0xDF	; 223
	.db #0xF0	; 240
	.db #0xBE	; 190
	.db #0xFF	; 255
	.db #0x91	; 145
	.db #0xBF	; 191
	.db #0x76	; 118	'v'
	.db #0x00	; 0
	.db #0x07	; 7
	.db #0x0F	; 15
	.db #0xE5	; 229
	.db #0xBB	; 187
	.db #0xFA	; 250
	.db #0xEF	; 239
	.db #0xFF	; 255
	.db #0xD9	; 217
	.db #0xBD	; 189
	.db #0x7E	; 126
	.db #0x00	; 0
	.db #0x06	; 6
	.db #0x1F	; 31
	.db #0xEB	; 235
	.db #0x7F	; 127
	.db #0xE8	; 232
	.db #0xEF	; 239
	.db #0xFF	; 255
	.db #0xC9	; 201
	.db #0xDE	; 222
	.db #0xFE	; 254
	.db #0x00	; 0
	.db #0x0E	; 14
	.db #0x1F	; 31
	.db #0xAB	; 171
	.db #0x7F	; 127
	.db #0xE5	; 229
	.db #0x2F	; 47
	.db #0xF7	; 247
	.db #0xEC	; 236
	.db #0xFE	; 254
	.db #0xFF	; 255
	.db #0x00	; 0
	.db #0x06	; 6
	.db #0x3D	; 61
	.db #0xD7	; 215
	.db #0xEF	; 239
	.db #0xD6	; 214
	.db #0x6F	; 111	'o'
	.db #0xFF	; 255
	.db #0x64	; 100	'd'
	.db #0xDE	; 222
	.db #0xFE	; 254
	.db #0x00	; 0
	.db #0x06	; 6
	.db #0x3B	; 59
	.db #0x6F	; 111	'o'
	.db #0xFF	; 255
	.db #0xDB	; 219
	.db #0x27	; 39
	.db #0xF7	; 247
	.db #0xEA	; 234
	.db #0xFE	; 254
	.db #0xEE	; 238
	.db #0x00	; 0
	.db #0x02	; 2
	.db #0x3B	; 59
	.db #0xED	; 237
	.db #0x6F	; 111	'o'
	.db #0x55	; 85	'U'
	.db #0x03	; 3
	.db #0xFE	; 254
	.db #0xBE	; 190
	.db #0xEE	; 238
	.db #0x7E	; 126
	.db #0x00	; 0
	.db #0x00	; 0
	.db #0x3B	; 59
	.db #0xAF	; 175
	.db #0xFF	; 255
	.db #0xA5	; 165
	.db #0xC7	; 199
	.db #0xFE	; 254
	.db #0x76	; 118	'v'
	.db #0x6F	; 111	'o'
	.db #0x7E	; 126
	.db #0x00	; 0
	.db #0x00	; 0
	.db #0x77	; 119	'w'
	.db #0xFD	; 253
	.db #0xFE	; 254
	.db #0x58	; 88	'X'
	.db #0xF3	; 243
	.db #0xFA	; 250
	.db #0x3F	; 63
	.db #0x6E	; 110	'n'
	.db #0x7E	; 126
	.db #0x00	; 0
	.db #0x00	; 0
	.db #0x3E	; 62
	.db #0xEF	; 239
	.db #0xFF	; 255
	.db #0x25	; 37
	.db #0xFB	; 251
	.db #0xFE	; 254
	.db #0x3D	; 61
	.db #0xFF	; 255
	.db #0x7E	; 126
	.db #0x00	; 0
	.db #0x00	; 0
	.db #0x77	; 119	'w'
	.db #0xBE	; 190
	.db #0x3D	; 61
	.db #0xAB	; 171
	.db #0xC1	; 193
	.db #0xF0	; 240
	.db #0x1E	; 30
	.db #0xFE	; 254
	.db #0x7E	; 126
	.db #0x00	; 0
	.db #0x00	; 0
	.db #0x2F	; 47
	.db #0xFC	; 252
	.db #0x3D	; 61
	.db #0x37	; 55	'7'
	.db #0x83	; 131
	.db #0xE7	; 231
	.db #0xAF	; 175
	.db #0x7F	; 127
	.db #0x7C	; 124
	.db #0x00	; 0
	.db #0x00	; 0
	.db #0x2F	; 47
	.db #0xF8	; 248
	.db #0x3D	; 61
	.db #0xBE	; 190
	.db #0x01	; 1
	.db #0xEB	; 235
	.db #0xCD	; 205
	.db #0xFF	; 255
	.db #0x7C	; 124
	.db #0x00	; 0
	.db #0x00	; 0
	.db #0x27	; 39
	.db #0x75	; 117	'u'
	.db #0x9A	; 154
	.db #0x20	; 32
	.db #0x01	; 1
	.db #0xC7	; 199
	.db #0xFF	; 255
	.db #0xFE	; 254
	.db #0x7C	; 124
	.db #0x00	; 0
	.db #0x00	; 0
	.db #0x0F	; 15
	.db #0xF2	; 242
	.db #0xBC	; 188
	.db #0x3A	; 58
	.db #0x01	; 1
	.db #0xCA	; 202
	.db #0x6F	; 111	'o'
	.db #0xEE	; 238
	.db #0x7C	; 124
	.db #0x00	; 0
	.db #0x00	; 0
	.db #0x07	; 7
	.db #0xF1	; 241
	.db #0x38	; 56	'8'
	.db #0x9F	; 159
	.db #0xE1	; 225
	.db #0x10	; 16
	.db #0x3D	; 61
	.db #0xFE	; 254
	.db #0x7C	; 124
	.db #0x00	; 0
	.db #0x00	; 0
	.db #0x07	; 7
	.db #0xF9	; 249
	.db #0x9C	; 156
	.db #0x03	; 3
	.db #0x79	; 121	'y'
	.db #0x80	; 128
	.db #0x3F	; 63
	.db #0xDE	; 222
	.db #0x78	; 120	'x'
	.db #0x00	; 0
	.db #0x00	; 0
	.db #0x01	; 1
	.db #0xF0	; 240
	.db #0x9C	; 156
	.db #0x03	; 3
	.db #0x59	; 89	'Y'
	.db #0x02	; 2
	.db #0x3B	; 59
	.db #0xBE	; 190
	.db #0xF8	; 248
	.db #0x00	; 0
	.db #0x00	; 0
	.db #0x01	; 1
	.db #0xF8	; 248
	.db #0x9C	; 156
	.db #0x1A	; 26
	.db #0x4D	; 77	'M'
	.db #0x07	; 7
	.db #0x9F	; 159
	.db #0xBC	; 188
	.db #0xF8	; 248
	.db #0x00	; 0
	.db #0x00	; 0
	.db #0x00	; 0
	.db #0xFA	; 250
	.db #0x1D	; 29
	.db #0x3D	; 61
	.db #0x86	; 134
	.db #0x03	; 3
	.db #0x9B	; 155
	.db #0xBC	; 188
	.db #0xF0	; 240
	.db #0x00	; 0
	.db #0x00	; 0
	.db #0x00	; 0
	.db #0x76	; 118	'v'
	.db #0xEC	; 236
	.db #0x1E	; 30
	.db #0x00	; 0
	.db #0x0E	; 14
	.db #0xDF	; 223
	.db #0x3D	; 61
	.db #0xF0	; 240
	.db #0x00	; 0
	.db #0x00	; 0
	.db #0x00	; 0
	.db #0xEF	; 239
	.db #0x2E	; 46
	.db #0x0F	; 15
	.db #0xE0	; 224
	.db #0x0B	; 11
	.db #0x7E	; 126
	.db #0x7D	; 125
	.db #0xF0	; 240
	.db #0x00	; 0
	.db #0x00	; 0
	.db #0x01	; 1
	.db #0xBE	; 190
	.db #0xEE	; 238
	.db #0xA5	; 165
	.db #0x80	; 128
	.db #0x02	; 2
	.db #0x68	; 104	'h'
	.db #0x79	; 121	'y'
	.db #0xE0	; 224
	.db #0x00	; 0
	.db #0x00	; 0
	.db #0x01	; 1
	.db #0xFE	; 254
	.db #0x77	; 119	'w'
	.db #0x00	; 0
	.db #0x00	; 0
	.db #0x01	; 1
	.db #0xB8	; 184
	.db #0x7B	; 123
	.db #0xC0	; 192
	.db #0x00	; 0
	.db #0x00	; 0
	.db #0x01	; 1
	.db #0xBF	; 191
	.db #0xD7	; 215
	.db #0x28	; 40
	.db #0x00	; 0
	.db #0x0F	; 15
	.db #0xC0	; 192
	.db #0xF7	; 247
	.db #0x80	; 128
	.db #0x00	; 0
	.db #0x00	; 0
	.db #0x01	; 1
	.db #0xF7	; 247
	.db #0x6F	; 111	'o'
	.db #0xAA	; 170
	.db #0x00	; 0
	.db #0x44	; 68	'D'
	.db #0x00	; 0
	.db #0xE7	; 231
	.db #0x00	; 0
	.db #0x00	; 0
	.db #0x00	; 0
	.db #0x07	; 7
	.db #0xFD	; 253
	.db #0x76	; 118	'v'
	.db #0xA9	; 169
	.db #0x00	; 0
	.db #0x40	; 64
	.db #0x01	; 1
	.db #0xE4	; 228
	.db #0x00	; 0
	.db #0x00	; 0
	.db #0x00	; 0
	.db #0x1F	; 31
	.db #0xF9	; 249
	.db #0xD5	; 213
	.db #0xC8	; 200
	.db #0x00	; 0
	.db #0xB4	; 180
	.db #0x03	; 3
	.db #0xC0	; 192
	.db #0x00	; 0
	.db #0x00	; 0
	.db #0x01	; 1
	.db #0xFF	; 255
	.db #0xFC	; 252
	.db #0xF6	; 246
	.db #0xB4	; 180
	.db #0x00	; 0
	.db #0xCA	; 202
	.db #0x03	; 3
	.db #0x80	; 128
	.db #0x00	; 0
	.db #0x00	; 0
	.db #0x0F	; 15
	.db #0xFF	; 255
	.db #0xFA	; 250
	.db #0xEA	; 234
	.db #0xA8	; 168
	.db #0x02	; 2
	.db #0x61	; 97	'a'
	.db #0x06	; 6
	.db #0x00	; 0
	.db #0x00	; 0
	.db #0x00	; 0
	.db #0x7F	; 127
	.db #0xFF	; 255
	.db #0xFD	; 253
	.db #0x75	; 117	'u'
	.db #0x54	; 84	'T'
	.db #0x0A	; 10
	.db #0x52	; 82	'R'
	.db #0x00	; 0
	.db #0x00	; 0
	.db #0x00	; 0
	.db #0x00	; 0
	.db #0xFF	; 255
	.db #0xFF	; 255
	.db #0xFA	; 250
	.db #0xEA	; 234
	.db #0xA0	; 160
	.db #0x0F	; 15
	.db #0xEB	; 235
	.db #0x40	; 64
	.db #0x00	; 0
	.db #0x00	; 0
	.db #0x00	; 0
	.db #0xDF	; 223
	.db #0xFF	; 255
	.db #0xFD	; 253
	.db #0x65	; 101	'e'
	.db #0x20	; 32
	.db #0x0F	; 15
	.db #0xD5	; 213
	.db #0x00	; 0
	.db #0x00	; 0
	.db #0x00	; 0
	.db #0x00	; 0
	.db #0x3F	; 63
	.db #0xFF	; 255
	.db #0xFD	; 253
	.db #0x55	; 85	'U'
	.db #0x06	; 6
	.db #0x03	; 3
	.db #0x49	; 73	'I'
	.db #0x40	; 64
	.db #0x00	; 0
	.db #0x00	; 0
	.db #0x00	; 0
	.db #0x7F	; 127
	.db #0xFF	; 255
	.db #0xFE	; 254
	.db #0xB0	; 176
	.db #0x9C	; 156
	.db #0x08	; 8
	.db #0x92	; 146
	.db #0x80	; 128
	.db #0x00	; 0
	.db #0x00	; 0
	.db #0x00	; 0
	.db #0xFF	; 255
	.db #0xFF	; 255
	.db #0xFF	; 255
	.db #0x7A	; 122	'z'
	.db #0x1C	; 28
	.db #0x3F	; 63
	.db #0x46	; 70	'F'
	.db #0x80	; 128
	.db #0x00	; 0
	.db #0x00	; 0
	.db #0x00	; 0
	.db #0xFF	; 255
	.db #0xFF	; 255
	.db #0xFA	; 250
	.db #0xA8	; 168
	.db #0x86	; 134
	.db #0x6D	; 109	'm'
	.db #0xAB	; 171
	.db #0x00	; 0
	.db #0x00	; 0
	.db #0x00	; 0
	.db #0x00	; 0
	.db #0xFF	; 255
	.db #0xFF	; 255
	.db #0xFE	; 254
	.db #0x9C	; 156
	.db #0x03	; 3
	.db #0xFF	; 255
	.db #0x85	; 133
	.db #0x00	; 0
	.db #0x00	; 0
	.db #0x00	; 0
	.db #0x10	; 16
	.db #0xFF	; 255
	.db #0x7F	; 127
	.db #0xF6	; 246
	.db #0x36	; 54	'6'
	.db #0x81	; 129
	.db #0x02	; 2
	.db #0x16	; 22
	.db #0x34	; 52	'4'
	.db #0x00	; 0
	.db #0x00	; 0
	.db #0x30	; 48	'0'
	.db #0xFF	; 255
	.db #0xFF	; 255
	.db #0xFD	; 253
	.db #0x9E	; 158
	.db #0x01	; 1
	.db #0x80	; 128
	.db #0x1F	; 31
	.db #0xFF	; 255
	.db #0x80	; 128
	.db #0x00	; 0
	.db #0x30	; 48	'0'
	.db #0xFE	; 254
	.db #0xFF	; 255
	.db #0xE6	; 230
	.db #0x25	; 37
	.db #0x81	; 129
	.db #0x82	; 130
	.db #0x7F	; 127
	.db #0xAA	; 170
	.db #0xC0	; 192
	.db #0x00	; 0
	.db #0x60	; 96
	.db #0x6F	; 111	'o'
	.db #0xF7	; 247
	.db #0xCC	; 204
	.db #0x55	; 85	'U'
	.db #0xC1	; 193
	.db #0x75	; 117	'u'
	.db #0x5D	; 93
	.db #0xFE	; 254
	.db #0xA0	; 160
	.db #0x00	; 0
	.db #0xE0	; 224
	.db #0x7F	; 127
	.db #0xFB	; 251
	.db #0xC6	; 198
	.db #0x2B	; 43
	.db #0xA1	; 161
	.db #0xDD	; 221
	.db #0xF7	; 247
	.db #0x5B	; 91
	.db #0x60	; 96
	.db #0x00	; 0
	.db #0xC0	; 192
	.db #0x3D	; 61
	.db #0xDF	; 223
	.db #0x8E	; 142
	.db #0x25	; 37
	.db #0xE4	; 228
	.db #0xFA	; 250
	.db #0xFE	; 254
	.db #0xFD	; 253
	.db #0x50	; 80	'P'
	.db #0x01	; 1
	.db #0x80	; 128
	.db #0x3B	; 59
	.db #0xAF	; 175
	.db #0x0F	; 15
	.db #0x06	; 6
	.db #0xB0	; 176
	.db #0x07	; 7
	.db #0xAB	; 171
	.db #0xD7	; 215
	.db #0x50	; 80	'P'
	.db #0x03	; 3
	.db #0x80	; 128
_venus:
	.db #0x54	; 84	'T'
	.db #0x30	; 48	'0'
	.db #0x2E	; 46
	.db #0xF7	; 247
	.db #0xB6	; 182
	.db #0xD5	; 213
	.db #0x4A	; 74	'J'
	.db #0x0F	; 15
	.db #0x00	; 0
	.db #0x40	; 64
	.db #0x5D	; 93
	.db #0xFA	; 250
	.db #0xE0	; 224
	.db #0x17	; 23
	.db #0x7F	; 127
	.db #0xDB	; 219
	.db #0x55	; 85	'U'
	.db #0xA4	; 164
	.db #0xBD	; 189
	.db #0x2A	; 42
	.db #0x00	; 0
	.db #0x2F	; 47
	.db #0xBF	; 191
	.db #0x70	; 112	'p'
	.db #0x2D	; 45
	.db #0xEB	; 235
	.db #0xED	; 237
	.db #0x55	; 85	'U'
	.db #0x55	; 85	'U'
	.db #0x58	; 88	'X'
	.db #0xA5	; 165
	.db #0x50	; 80	'P'
	.db #0x1F	; 31
	.db #0xF5	; 245
	.db #0xD0	; 208
	.db #0x4F	; 79	'O'
	.db #0xFF	; 255
	.db #0x5B	; 91
	.db #0x5A	; 90	'Z'
	.db #0xAA	; 170
	.db #0x35	; 53	'5'
	.db #0x48	; 72	'H'
	.db #0x08	; 8
	.db #0x0F	; 15
	.db #0xDF	; 223
	.db #0xE0	; 224
	.db #0x85	; 133
	.db #0xAD	; 173
	.db #0xBD	; 189
	.db #0xAA	; 170
	.db #0xA9	; 169
	.db #0x41	; 65	'A'
	.db #0x57	; 87	'W'
	.db #0x42	; 66	'B'
	.db #0x8B	; 139
	.db #0xFF	; 255
	.db #0x70	; 112	'p'
	.db #0x4B	; 75	'K'
	.db #0xFF	; 255
	.db #0xD6	; 214
	.db #0xD4	; 212
	.db #0xAA	; 170
	.db #0x95	; 149
	.db #0x6B	; 107	'k'
	.db #0xF8	; 248
	.db #0x47	; 71	'G'
	.db #0xF7	; 247
	.db #0xD0	; 208
	.db #0x27	; 39
	.db #0xDD	; 221
	.db #0xBA	; 186
	.db #0xB7	; 183
	.db #0x55	; 85	'U'
	.db #0x45	; 69	'E'
	.db #0x7C	; 124
	.db #0xAE	; 174
	.db #0x23	; 35
	.db #0xFD	; 253
	.db #0xF0	; 240
	.db #0x0F	; 15
	.db #0xFF	; 255
	.db #0xDD	; 221
	.db #0xFD	; 253
	.db #0xB5	; 181
	.db #0x02	; 2
	.db #0xDB	; 219
	.db #0xF5	; 245
	.db #0x0B	; 11
	.db #0x7F	; 127
	.db #0xD0	; 208
	.db #0x5F	; 95
	.db #0xFF	; 255
	.db #0xEF	; 239
	.db #0xFF	; 255
	.db #0xCD	; 205
	.db #0x29	; 41
	.db #0xFF	; 255
	.db #0x94	; 148
	.db #0x01	; 1
	.db #0xFD	; 253
	.db #0x70	; 112	'p'
	.db #0x9F	; 159
	.db #0x7F	; 127
	.db #0xDB	; 219
	.db #0xAD	; 173
	.db #0x6A	; 106	'j'
	.db #0x42	; 66	'B'
	.db #0xFF	; 255
	.db #0xCA	; 202
	.db #0x8B	; 139
	.db #0xEF	; 239
	.db #0xE0	; 224
	.db #0x5F	; 95
	.db #0xF7	; 247
	.db #0xEF	; 239
	.db #0xF7	; 247
	.db #0xEA	; 234
	.db #0x89	; 137
	.db #0xCF	; 207
	.db #0x64	; 100	'd'
	.db #0x01	; 1
	.db #0xFE	; 254
	.db #0xD0	; 208
	.db #0x3D	; 61
	.db #0xBB	; 187
	.db #0xFE	; 254
	.db #0xAD	; 173
	.db #0x74	; 116	't'
	.db #0x02	; 2
	.db #0xF7	; 247
	.db #0xB0	; 176
	.db #0x11	; 17
	.db #0xFF	; 255
	.db #0x70	; 112	'p'
	.db #0x7F	; 127
	.db #0xDF	; 223
	.db #0xEF	; 239
	.db #0xFF	; 255
	.db #0xDB	; 219
	.db #0x49	; 73	'I'
	.db #0xDD	; 221
	.db #0x48	; 72	'H'
	.db #0x05	; 5
	.db #0xFD	; 253
	.db #0xE0	; 224
	.db #0x2A	; 42
	.db #0xF7	; 247
	.db #0xF5	; 245
	.db #0x5B	; 91
	.db #0x7C	; 124
	.db #0x82	; 130
	.db #0x75	; 117	'u'
	.db #0xA0	; 160
	.db #0x21	; 33
	.db #0x7F	; 127
	.db #0xF0	; 240
	.db #0x3F	; 63
	.db #0xBF	; 191
	.db #0xFF	; 255
	.db #0xFF	; 255
	.db #0xF6	; 246
	.db #0x00	; 0
	.db #0x94	; 148
	.db #0x00	; 0
	.db #0x05	; 5
	.db #0xFD	; 253
	.db #0x50	; 80	'P'
	.db #0x3A	; 58
	.db #0xEF	; 239
	.db #0xEA	; 234
	.db #0xFF	; 255
	.db #0xDD	; 221
	.db #0x80	; 128
	.db #0x12	; 18
	.db #0xD2	; 210
	.db #0x12	; 18
	.db #0xFF	; 255
	.db #0xD0	; 208
	.db #0x3F	; 63
	.db #0xFF	; 255
	.db #0xFF	; 255
	.db #0xEF	; 239
	.db #0x7E	; 126
	.db #0x20	; 32
	.db #0x01	; 1
	.db #0x00	; 0
	.db #0x42	; 66	'B'
	.db #0xEF	; 239
	.db #0x60	; 96
	.db #0x2D	; 45
	.db #0xAD	; 173
	.db #0xFA	; 250
	.db #0xFF	; 255
	.db #0xF7	; 247
	.db #0x40	; 64
	.db #0x00	; 0
	.db #0x00	; 0
	.db #0x01	; 1
	.db #0xFB	; 251
	.db #0xA0	; 160
	.db #0x1F	; 31
	.db #0xF7	; 247
	.db #0xFF	; 255
	.db #0xFD	; 253
	.db #0xBD	; 189
	.db #0x00	; 0
	.db #0x24	; 36
	.db #0x00	; 0
	.db #0x04	; 4
	.db #0xBE	; 190
	.db #0xD0	; 208
	.db #0x17	; 23
	.db #0x7E	; 126
	.db #0xEB	; 235
	.db #0xDF	; 223
	.db #0xD7	; 215
	.db #0x49	; 73	'I'
	.db #0x00	; 0
	.db #0x22	; 34
	.db #0x41	; 65	'A'
	.db #0x7F	; 127
	.db #0x60	; 96
	.db #0x0D	; 13
	.db #0xDB	; 219
	.db #0xFD	; 253
	.db #0xFF	; 255
	.db #0x7D	; 125
	.db #0x80	; 128
	.db #0x08	; 8
	.db #0x88	; 136
	.db #0x10	; 16
	.db #0xFD	; 253
	.db #0xD0	; 208
	.db #0x02	; 2
	.db #0xFF	; 255
	.db #0x6E	; 110	'n'
	.db #0xAD	; 173
	.db #0xD6	; 214
	.db #0xA0	; 160
	.db #0x42	; 66	'B'
	.db #0x01	; 1
	.db #0x05	; 5
	.db #0x7F	; 127
	.db #0x70	; 112	'p'
	.db #0xA1	; 161
	.db #0x5F	; 95
	.db #0xFF	; 255
	.db #0x7B	; 123
	.db #0x57	; 87	'W'
	.db #0x89	; 137
	.db #0x08	; 8
	.db #0xA8	; 168
	.db #0x40	; 64
	.db #0xFF	; 255
	.db #0xB0	; 176
	.db #0x04	; 4
	.db #0x7F	; 127
	.db #0xB6	; 182
	.db #0xEE	; 238
	.db #0xDD	; 221
	.db #0x40	; 64
	.db #0x20	; 32
	.db #0x02	; 2
	.db #0x12	; 18
	.db #0x7D	; 125
	.db #0xD0	; 208
	.db #0x20	; 32
	.db #0x7D	; 125
	.db #0xEF	; 239
	.db #0xBB	; 187
	.db #0x57	; 87	'W'
	.db #0xD2	; 210
	.db #0x85	; 133
	.db #0x24	; 36
	.db #0x80	; 128
	.db #0x5F	; 95
	.db #0x70	; 112	'p'
	.db #0x85	; 133
	.db #0x7F	; 127
	.db #0xFE	; 254
	.db #0xED	; 237
	.db #0x5A	; 90	'Z'
	.db #0x80	; 128
	.db #0x20	; 32
	.db #0x40	; 64
	.db #0x12	; 18
	.db #0x7F	; 127
	.db #0xF0	; 240
	.db #0x10	; 16
	.db #0x5F	; 95
	.db #0xDF	; 223
	.db #0xB6	; 182
	.db #0xAF	; 175
	.db #0xD2	; 210
	.db #0x4A	; 74	'J'
	.db #0x14	; 20
	.db #0x41	; 65	'A'
	.db #0x3F	; 63
	.db #0xA0	; 160
	.db #0x42	; 66	'B'
	.db #0x7D	; 125
	.db #0xFF	; 255
	.db #0x7B	; 123
	.db #0x75	; 117	'u'
	.db #0xA0	; 160
	.db #0x04	; 4
	.db #0x81	; 129
	.db #0x04	; 4
	.db #0x2E	; 46
	.db #0xF0	; 240
	.db #0x08	; 8
	.db #0x3F	; 63
	.db #0xF7	; 247
	.db #0xD6	; 214
	.db #0xDF	; 223
	.db #0xD4	; 212
	.db #0x90	; 144
	.db #0x24	; 36
	.db #0x11	; 17
	.db #0x1F	; 31
	.db #0xF0	; 240
	.db #0x01	; 1
	.db #0x5F	; 95
	.db #0x7F	; 127
	.db #0xBD	; 189
	.db #0xAA	; 170
	.db #0xD1	; 209
	.db #0x75	; 117	'u'
	.db #0x00	; 0
	.db #0x42	; 66	'B'
	.db #0x4B	; 75	'K'
	.db #0xD0	; 208
	.db #0x92	; 146
	.db #0x7D	; 125
	.db #0xFF	; 255
	.db #0xEE	; 238
	.db #0xF7	; 247
	.db #0xAA	; 170
	.db #0xE8	; 232
	.db #0x49	; 73	'I'
	.db #0x00	; 0
	.db #0x2F	; 47
	.db #0xF0	; 240
	.db #0x01	; 1
	.db #0xFF	; 255
	.db #0xFF	; 255
	.db #0xDB	; 219
	.db #0x5D	; 93
	.db #0xF5	; 245
	.db #0x74	; 116	't'
	.db #0x00	; 0
	.db #0x12	; 18
	.db #0xA5	; 165
	.db #0xF0	; 240
	.db #0x24	; 36
	.db #0xBB	; 187
	.db #0xBD	; 189
	.db #0xED	; 237
	.db #0xB7	; 183
	.db #0xA9	; 169
	.db #0x00	; 0
	.db #0x90	; 144
	.db #0x40	; 64
	.db #0x2B	; 43
	.db #0xF0	; 240
	.db #0x81	; 129
	.db #0xBF	; 191
	.db #0xFF	; 255
	.db #0xF6	; 246
	.db #0xDB	; 219
	.db #0xFE	; 254
	.db #0x80	; 128
	.db #0x02	; 2
	.db #0x01	; 1
	.db #0x13	; 19
	.db #0xF0	; 240
	.db #0x09	; 9
	.db #0x5A	; 90	'Z'
	.db #0xDF	; 223
	.db #0xFD	; 253
	.db #0xB6	; 182
	.db #0xFF	; 255
	.db #0x40	; 64
	.db #0x00	; 0
	.db #0x08	; 8
	.db #0x4A	; 74	'J'
	.db #0xF0	; 240
	.db #0x22	; 34
	.db #0xAF	; 175
	.db #0xF7	; 247
	.db #0xF7	; 247
	.db #0x6D	; 109	'm'
	.db #0xFB	; 251
	.db #0x00	; 0
	.db #0x00	; 0
	.db #0x20	; 32
	.db #0x85	; 133
	.db #0xF0	; 240
	.db #0x03	; 3
	.db #0x1E	; 30
	.db #0xBF	; 191
	.db #0xFB	; 251
	.db #0xB7	; 183
	.db #0x55	; 85	'U'
	.db #0x40	; 64
	.db #0x50	; 80	'P'
	.db #0x00	; 0
	.db #0x2B	; 43
	.db #0xF0	; 240
	.db #0x09	; 9
	.db #0x57	; 87	'W'
	.db #0xEF	; 239
	.db #0xFD	; 253
	.db #0xDA	; 218
	.db #0xEA	; 234
	.db #0x20	; 32
	.db #0x08	; 8
	.db #0x82	; 130
	.db #0x8B	; 139
	.db #0xF0	; 240
	.db #0x01	; 1
	.db #0x0D	; 13
	.db #0xBD	; 189
	.db #0xFE	; 254
	.db #0xB7	; 183
	.db #0x5A	; 90	'Z'
	.db #0xAA	; 170
	.db #0xF0	; 240
	.db #0x00	; 0
	.db #0x17	; 23
	.db #0xF0	; 240
	.db #0x00	; 0
	.db #0x97	; 151
	.db #0xFB	; 251
	.db #0x7D	; 125
	.db #0xED	; 237
	.db #0xAA	; 170
	.db #0xD6	; 214
	.db #0xF8	; 248
	.db #0x08	; 8
	.db #0x8D	; 141
	.db #0xF0	; 240
	.db #0x00	; 0
	.db #0x0E	; 14
	.db #0xEF	; 239
	.db #0xDE	; 222
	.db #0xBA	; 186
	.db #0xAF	; 175
	.db #0xAF	; 175
	.db #0xC0	; 192
	.db #0x00	; 0
	.db #0x2F	; 47
	.db #0xF0	; 240
	.db #0x02	; 2
	.db #0x8B	; 139
	.db #0xFF	; 255
	.db #0xF7	; 247
	.db #0xD6	; 214
	.db #0xB7	; 183
	.db #0xFD	; 253
	.db #0x40	; 64
	.db #0x42	; 66	'B'
	.db #0x2B	; 43
	.db #0xF0	; 240
	.db #0x88	; 136
	.db #0x27	; 39
	.db #0xBD	; 189
	.db #0xBB	; 187
	.db #0xBB	; 187
	.db #0x5F	; 95
	.db #0xAA	; 170
	.db #0x84	; 132
	.db #0x00	; 0
	.db #0xB5	; 181
	.db #0xE0	; 224
	.db #0x00	; 0
	.db #0x01	; 1
	.db #0xF7	; 247
	.db #0xFD	; 253
	.db #0xD5	; 213
	.db #0xFE	; 254
	.db #0xB5	; 181
	.db #0x00	; 0
	.db #0x02	; 2
	.db #0x5B	; 91
	.db #0xF0	; 240
	.db #0x00	; 0
	.db #0x12	; 18
	.db #0xFF	; 255
	.db #0xEE	; 238
	.db #0xEE	; 238
	.db #0xBF	; 191
	.db #0x75	; 117	'u'
	.db #0x00	; 0
	.db #0x10	; 16
	.db #0xB7	; 183
	.db #0xF0	; 240
	.db #0x00	; 0
	.db #0x04	; 4
	.db #0xFF	; 255
	.db #0xBF	; 191
	.db #0x6B	; 107	'k'
	.db #0x55	; 85	'U'
	.db #0xDC	; 220
	.db #0x00	; 0
	.db #0x00	; 0
	.db #0xD3	; 211
	.db #0xD0	; 208
	.db #0x00	; 0
	.db #0x08	; 8
	.db #0x3F	; 63
	.db #0xF5	; 245
	.db #0xFA	; 250
	.db #0xD5	; 213
	.db #0x76	; 118	'v'
	.db #0x90	; 144
	.db #0x82	; 130
	.db #0xAB	; 171
	.db #0xF0	; 240
	.db #0x02	; 2
	.db #0x22	; 34
	.db #0x0D	; 13
	.db #0xFF	; 255
	.db #0x7D	; 125
	.db #0xB5	; 181
	.db #0xBA	; 186
	.db #0x00	; 0
	.db #0x01	; 1
	.db #0x4B	; 75	'K'
	.db #0xB0	; 176
___str_0:
	.ascii "STM8S103F3"
	.db 0x00
___str_1:
	.ascii "Grafikmode"
	.db 0x00
	.area INITIALIZER
	.area CABS (ABS)
